Certificate:
    Data:
        Version: 3 (0x2)
        Serial Number: 268435688 (0x100000e8)
    Signature Algorithm: sha256WithRSAEncryption
        Issuer: C=DE, ST=Hessen, O=privacyidea, CN=CA001
        Validity
            Not Before: Apr 16 14:33:24 2019 GMT
            Not After : Apr 15 14:33:24 2020 GMT
        Subject: C=DE, ST=Hessen, O=privacyidea, CN=requester.localdomain
        Subject Public Key Info:
            Public Key Algorithm: rsaEncryption
                Public-Key: (2048 bit)
                Modulus:
                    00:cd:be:14:4f:fa:ce:01:3f:42:22:1b:1d:9c:af:
                    dd:92:d2:7f:db:6c:b7:3e:39:43:43:6b:13:03:f1:
                    05:f4:07:74:bc:76:69:28:0b:af:19:8e:d7:fc:e3:
                    cd:c6:58:f2:ca:7f:08:6d:53:fc:07:02:44:24:c6:
                    b4:34:4c:8c:04:fe:33:0e:40:e2:20:ba:02:73:5a:
                    f7:f5:4f:63:6e:cc:c6:b6:df:54:1d:37:39:7d:51:
                    36:26:5f:bd:dc:3f:a8:8b:6b:a2:ae:b6:9d:d6:21:
                    e7:df:41:b8:7a:28:2a:68:48:ca:a8:2d:ed:e1:e9:
                    46:5e:5a:72:6d:b4:84:38:87:91:fd:94:11:0b:28:
                    84:c6:c2:2f:2a:fb:01:f9:36:7a:09:75:d1:33:88:
                    3c:73:41:5b:c8:bf:94:89:70:a1:f0:c0:b9:2e:50:
                    53:1e:b1:17:64:69:f4:2d:81:e0:a9:0d:0e:32:e9:
                    ba:55:8a:85:f1:1b:6f:49:79:b4:7f:88:c3:0d:3e:
                    54:88:9b:3d:1f:38:8c:04:f3:ee:6a:63:2b:f5:c6:
                    db:b4:83:aa:c4:78:41:3a:7d:4b:e1:c8:3e:71:ca:
                    1b:61:59:ea:c6:c4:ca:32:5e:c9:e9:bf:12:29:e6:
                    c6:c3:63:fe:a0:55:da:7a:f1:60:98:4d:26:ed:fa:
                    70:2d
                Exponent: 65537 (0x10001)
        X509v3 extensions:
            X509v3 Key Usage: 
                Digital Signature, Key Encipherment
            X509v3 Basic Constraints: 
                CA:FALSE
            Netscape Cert Type: 
                SSL Server
            Netscape Comment: 
                OpenSSL Generated Server Certificate
            X509v3 Subject Key Identifier: 
                53:3F:ED:5D:09:07:B3:65:7B:AB:45:C9:24:5B:09:77:80:0A:96:ED
            X509v3 Authority Key Identifier: 
                keyid:F4:A7:C0:CC:91:46:AF:64:F3:91:F2:27:F8:C8:B2:6F:8A:87:32:73
                DirName:/C=DE/ST=Hessen/O=privacyidea/CN=CA001
                serial:FB:C8:EB:AC:83:CD:12:07

            X509v3 Extended Key Usage: 
                TLS Web Server Authentication
    Signature Algorithm: sha256WithRSAEncryption
         61:13:a2:39:9b:ae:1a:ed:e3:8f:0e:18:33:2f:45:84:77:ae:
         45:f4:51:c1:50:14:de:37:65:e1:50:f3:4e:c1:03:34:6b:65:
         66:d0:48:8b:fd:9d:31:3e:02:01:47:b8:c5:3c:4a:fb:3e:40:
         96:e1:30:c2:e5:14:f7:25:8b:63:84:be:79:6d:00:6f:04:28:
         86:e7:81:8c:0f:96:c7:9d:9a:64:02:c9:13:36:3c:9b:5f:ff:
         98:1d:a9:3e:26:7a:9a:62:ee:4b:fc:32:f0:e1:46:9f:46:84:
         51:c3:24:8a:59:36:80:23:9a:0d:b8:1d:49:1f:45:95:9b:94:
         4e:df:00:c0:67:17:38:f6:24:31:d6:cc:e7:c4:50:35:86:4e:
         16:21:dd:e6:82:50:91:45:42:26:69:3b:a6:79:24:27:9d:58:
         ca:ae:14:26:5d:98:da:80:a7:a2:4b:96:51:5f:d0:1e:c7:c0:
         4e:c4:2f:ee:8b:b8:96:db:e2:51:fa:2e:d1:f9:81:96:67:9e:
         c4:a5:11:96:29:1e:dc:e5:91:41:9d:dc:c2:7c:08:17:bc:68:
         63:43:0e:1e:6a:e2:f7:47:57:a4:97:80:96:4b:b6:07:ba:df:
         6e:37:dd:ef:3c:e2:55:f6:0d:70:ac:2e:14:58:be:06:1e:64:
         32:13:62:00
-----BEGIN CERTIFICATE-----
MIIEJjCCAw6gAwIBAgIEEAAA6DANBgkqhkiG9w0BAQsFADBEMQswCQYDVQQGEwJE
RTEPMA0GA1UECAwGSGVzc2VuMRQwEgYDVQQKDAtwcml2YWN5aWRlYTEOMAwGA1UE
AwwFQ0EwMDEwHhcNMTkwNDE2MTQzMzI0WhcNMjAwNDE1MTQzMzI0WjBUMQswCQYD
VQQGEwJERTEPMA0GA1UECAwGSGVzc2VuMRQwEgYDVQQKDAtwcml2YWN5aWRlYTEe
MBwGA1UEAwwVcmVxdWVzdGVyLmxvY2FsZG9tYWluMIIBIjANBgkqhkiG9w0BAQEF
AAOCAQ8AMIIBCgKCAQEAzb4UT/rOAT9CIhsdnK/dktJ/22y3PjlDQ2sTA/EF9Ad0
vHZpKAuvGY7X/OPNxljyyn8IbVP8BwJEJMa0NEyMBP4zDkDiILoCc1r39U9jbszG
tt9UHTc5fVE2Jl+93D+oi2uirrad1iHn30G4eigqaEjKqC3t4elGXlpybbSEOIeR
/ZQRCyiExsIvKvsB+TZ6CXXRM4g8c0FbyL+UiXCh8MC5LlBTHrEXZGn0LYHgqQ0O
Mum6VYqF8RtvSXm0f4jDDT5UiJs9HziMBPPuamMr9cbbtIOqxHhBOn1L4cg+ccob
YVnqxsTKMl7J6b8SKebGw2P+oFXaevFgmE0m7fpwLQIDAQABo4IBDjCCAQowCwYD
VR0PBAQDAgWgMAkGA1UdEwQCMAAwEQYJYIZIAYb4QgEBBAQDAgZAMDMGCWCGSAGG
+EIBDQQmFiRPcGVuU1NMIEdlbmVyYXRlZCBTZXJ2ZXIgQ2VydGlmaWNhdGUwHQYD
VR0OBBYEFFM/7V0JB7Nle6tFySRbCXeACpbtMHQGA1UdIwRtMGuAFPSnwMyRRq9k
85HyJ/jIsm+KhzJzoUikRjBEMQswCQYDVQQGEwJERTEPMA0GA1UECAwGSGVzc2Vu
MRQwEgYDVQQKDAtwcml2YWN5aWRlYTEOMAwGA1UEAwwFQ0EwMDGCCQD7yOusg80S
BzATBgNVHSUEDDAKBggrBgEFBQcDATANBgkqhkiG9w0BAQsFAAOCAQEAYROiOZuu
Gu3jjw4YMy9FhHeuRfRRwVAU3jdl4VDzTsEDNGtlZtBIi/2dMT4CAUe4xTxK+z5A
luEwwuUU9yWLY4S+eW0AbwQohueBjA+Wx52aZALJEzY8m1//mB2pPiZ6mmLuS/wy
8OFGn0aEUcMkilk2gCOaDbgdSR9FlZuUTt8AwGcXOPYkMdbM58RQNYZOFiHd5oJQ
kUVCJmk7pnkkJ51Yyq4UJl2Y2oCnokuWUV/QHsfATsQv7ou4ltviUfou0fmBlmee
xKURlike3OWRQZ3cwnwIF7xoY0MOHmri90dXpJeAlku2B7rfbjfd7zziVfYNcKwu
FFi+Bh5kMhNiAA==
-----END CERTIFICATE-----
