Certificate:
    Data:
        Version: 3 (0x2)
        Serial Number: 268435680 (0x100000e0)
    Signature Algorithm: sha256WithRSAEncryption
        Issuer: C=DE, ST=Hessen, O=privacyidea, CN=CA001
        Validity
            Not Before: Apr 16 08:32:27 2019 GMT
            Not After : Apr 15 08:32:27 2020 GMT
        Subject: C=DE, ST=Hessen, O=privacyidea, CN=requester.localdomain
        Subject Public Key Info:
            Public Key Algorithm: rsaEncryption
                Public-Key: (2048 bit)
                Modulus:
                    00:cd:be:14:4f:fa:ce:01:3f:42:22:1b:1d:9c:af:
                    dd:92:d2:7f:db:6c:b7:3e:39:43:43:6b:13:03:f1:
                    05:f4:07:74:bc:76:69:28:0b:af:19:8e:d7:fc:e3:
                    cd:c6:58:f2:ca:7f:08:6d:53:fc:07:02:44:24:c6:
                    b4:34:4c:8c:04:fe:33:0e:40:e2:20:ba:02:73:5a:
                    f7:f5:4f:63:6e:cc:c6:b6:df:54:1d:37:39:7d:51:
                    36:26:5f:bd:dc:3f:a8:8b:6b:a2:ae:b6:9d:d6:21:
                    e7:df:41:b8:7a:28:2a:68:48:ca:a8:2d:ed:e1:e9:
                    46:5e:5a:72:6d:b4:84:38:87:91:fd:94:11:0b:28:
                    84:c6:c2:2f:2a:fb:01:f9:36:7a:09:75:d1:33:88:
                    3c:73:41:5b:c8:bf:94:89:70:a1:f0:c0:b9:2e:50:
                    53:1e:b1:17:64:69:f4:2d:81:e0:a9:0d:0e:32:e9:
                    ba:55:8a:85:f1:1b:6f:49:79:b4:7f:88:c3:0d:3e:
                    54:88:9b:3d:1f:38:8c:04:f3:ee:6a:63:2b:f5:c6:
                    db:b4:83:aa:c4:78:41:3a:7d:4b:e1:c8:3e:71:ca:
                    1b:61:59:ea:c6:c4:ca:32:5e:c9:e9:bf:12:29:e6:
                    c6:c3:63:fe:a0:55:da:7a:f1:60:98:4d:26:ed:fa:
                    70:2d
                Exponent: 65537 (0x10001)
        X509v3 extensions:
            X509v3 Key Usage: 
                Digital Signature, Key Encipherment
            X509v3 Basic Constraints: 
                CA:FALSE
            Netscape Cert Type: 
                SSL Server
            Netscape Comment: 
                OpenSSL Generated Server Certificate
            X509v3 Subject Key Identifier: 
                53:3F:ED:5D:09:07:B3:65:7B:AB:45:C9:24:5B:09:77:80:0A:96:ED
            X509v3 Authority Key Identifier: 
                keyid:F4:A7:C0:CC:91:46:AF:64:F3:91:F2:27:F8:C8:B2:6F:8A:87:32:73
                DirName:/C=DE/ST=Hessen/O=privacyidea/CN=CA001
                serial:FB:C8:EB:AC:83:CD:12:07

            X509v3 Extended Key Usage: 
                TLS Web Server Authentication
    Signature Algorithm: sha256WithRSAEncryption
         45:3c:9d:33:39:17:6a:c6:81:57:c0:ec:bd:e5:7d:80:f6:b7:
         a5:c3:41:ef:30:23:dc:cc:81:f3:15:72:1e:5f:08:38:3b:56:
         25:a2:c0:7c:05:0d:b0:7f:f0:f8:49:ef:92:f5:22:fb:ff:e7:
         8c:56:bf:77:e8:91:f7:fe:29:4a:8b:bc:de:f8:18:85:f8:38:
         d2:90:20:c4:80:ec:ce:47:8c:4c:ef:e9:0e:fb:8e:91:f6:d2:
         ba:e4:f2:c9:16:40:92:2a:4a:90:e8:bb:8e:94:1b:19:54:eb:
         7e:32:4a:e5:d0:62:5b:f3:5b:8e:ab:02:ba:fa:fd:4f:40:0e:
         b0:5f:f5:bc:91:34:c3:92:e6:3b:63:61:b2:7c:be:6f:1b:8b:
         e2:68:a2:c6:4c:ec:c0:11:de:1a:53:42:9e:be:4d:2e:03:a3:
         88:42:e2:6c:f4:15:5f:17:2a:30:9b:c9:f6:14:50:56:a6:ff:
         aa:99:d8:22:7f:b5:73:fe:6b:e2:4e:6d:bf:40:35:56:e2:01:
         6a:62:23:41:4b:04:28:28:59:dd:c7:60:92:36:33:8a:b8:84:
         c0:60:24:0b:5c:11:3a:83:80:89:63:f3:c6:0f:db:93:8a:dc:
         1f:ca:c1:6f:5d:f8:ef:98:0b:19:2f:f6:24:e9:a1:b5:9b:12:
         08:04:7d:c1
-----BEGIN CERTIFICATE-----
MIIEJjCCAw6gAwIBAgIEEAAA4DANBgkqhkiG9w0BAQsFADBEMQswCQYDVQQGEwJE
RTEPMA0GA1UECAwGSGVzc2VuMRQwEgYDVQQKDAtwcml2YWN5aWRlYTEOMAwGA1UE
AwwFQ0EwMDEwHhcNMTkwNDE2MDgzMjI3WhcNMjAwNDE1MDgzMjI3WjBUMQswCQYD
VQQGEwJERTEPMA0GA1UECAwGSGVzc2VuMRQwEgYDVQQKDAtwcml2YWN5aWRlYTEe
MBwGA1UEAwwVcmVxdWVzdGVyLmxvY2FsZG9tYWluMIIBIjANBgkqhkiG9w0BAQEF
AAOCAQ8AMIIBCgKCAQEAzb4UT/rOAT9CIhsdnK/dktJ/22y3PjlDQ2sTA/EF9Ad0
vHZpKAuvGY7X/OPNxljyyn8IbVP8BwJEJMa0NEyMBP4zDkDiILoCc1r39U9jbszG
tt9UHTc5fVE2Jl+93D+oi2uirrad1iHn30G4eigqaEjKqC3t4elGXlpybbSEOIeR
/ZQRCyiExsIvKvsB+TZ6CXXRM4g8c0FbyL+UiXCh8MC5LlBTHrEXZGn0LYHgqQ0O
Mum6VYqF8RtvSXm0f4jDDT5UiJs9HziMBPPuamMr9cbbtIOqxHhBOn1L4cg+ccob
YVnqxsTKMl7J6b8SKebGw2P+oFXaevFgmE0m7fpwLQIDAQABo4IBDjCCAQowCwYD
VR0PBAQDAgWgMAkGA1UdEwQCMAAwEQYJYIZIAYb4QgEBBAQDAgZAMDMGCWCGSAGG
+EIBDQQmFiRPcGVuU1NMIEdlbmVyYXRlZCBTZXJ2ZXIgQ2VydGlmaWNhdGUwHQYD
VR0OBBYEFFM/7V0JB7Nle6tFySRbCXeACpbtMHQGA1UdIwRtMGuAFPSnwMyRRq9k
85HyJ/jIsm+KhzJzoUikRjBEMQswCQYDVQQGEwJERTEPMA0GA1UECAwGSGVzc2Vu
MRQwEgYDVQQKDAtwcml2YWN5aWRlYTEOMAwGA1UEAwwFQ0EwMDGCCQD7yOusg80S
BzATBgNVHSUEDDAKBggrBgEFBQcDATANBgkqhkiG9w0BAQsFAAOCAQEARTydMzkX
asaBV8DsveV9gPa3pcNB7zAj3MyB8xVyHl8IODtWJaLAfAUNsH/w+EnvkvUi+//n
jFa/d+iR9/4pSou83vgYhfg40pAgxIDszkeMTO/pDvuOkfbSuuTyyRZAkipKkOi7
jpQbGVTrfjJK5dBiW/NbjqsCuvr9T0AOsF/1vJE0w5LmO2Nhsny+bxuL4miixkzs
wBHeGlNCnr5NLgOjiELibPQVXxcqMJvJ9hRQVqb/qpnYIn+1c/5r4k5tv0A1VuIB
amIjQUsEKChZ3cdgkjYziriEwGAkC1wROoOAiWPzxg/bk4rcH8rBb13475gLGS/2
JOmhtZsSCAR9wQ==
-----END CERTIFICATE-----
