Certificate:
    Data:
        Version: 3 (0x2)
        Serial Number: 268435702 (0x100000f6)
    Signature Algorithm: sha256WithRSAEncryption
        Issuer: C=DE, ST=Hessen, O=privacyidea, CN=CA001
        Validity
            Not Before: Jan  9 20:51:33 2019 GMT
            Not After : Jan  9 20:51:33 2020 GMT
        Subject: C=DE, ST=Hessen, O=privacyidea, CN=requester.localdomain
        Subject Public Key Info:
            Public Key Algorithm: rsaEncryption
                Public-Key: (2048 bit)
                Modulus:
                    00:cd:be:14:4f:fa:ce:01:3f:42:22:1b:1d:9c:af:
                    dd:92:d2:7f:db:6c:b7:3e:39:43:43:6b:13:03:f1:
                    05:f4:07:74:bc:76:69:28:0b:af:19:8e:d7:fc:e3:
                    cd:c6:58:f2:ca:7f:08:6d:53:fc:07:02:44:24:c6:
                    b4:34:4c:8c:04:fe:33:0e:40:e2:20:ba:02:73:5a:
                    f7:f5:4f:63:6e:cc:c6:b6:df:54:1d:37:39:7d:51:
                    36:26:5f:bd:dc:3f:a8:8b:6b:a2:ae:b6:9d:d6:21:
                    e7:df:41:b8:7a:28:2a:68:48:ca:a8:2d:ed:e1:e9:
                    46:5e:5a:72:6d:b4:84:38:87:91:fd:94:11:0b:28:
                    84:c6:c2:2f:2a:fb:01:f9:36:7a:09:75:d1:33:88:
                    3c:73:41:5b:c8:bf:94:89:70:a1:f0:c0:b9:2e:50:
                    53:1e:b1:17:64:69:f4:2d:81:e0:a9:0d:0e:32:e9:
                    ba:55:8a:85:f1:1b:6f:49:79:b4:7f:88:c3:0d:3e:
                    54:88:9b:3d:1f:38:8c:04:f3:ee:6a:63:2b:f5:c6:
                    db:b4:83:aa:c4:78:41:3a:7d:4b:e1:c8:3e:71:ca:
                    1b:61:59:ea:c6:c4:ca:32:5e:c9:e9:bf:12:29:e6:
                    c6:c3:63:fe:a0:55:da:7a:f1:60:98:4d:26:ed:fa:
                    70:2d
                Exponent: 65537 (0x10001)
        X509v3 extensions:
            X509v3 Key Usage: 
                Digital Signature, Key Encipherment
            X509v3 Basic Constraints: 
                CA:FALSE
            Netscape Cert Type: 
                SSL Server
            Netscape Comment: 
                OpenSSL Generated Server Certificate
            X509v3 Subject Key Identifier: 
                53:3F:ED:5D:09:07:B3:65:7B:AB:45:C9:24:5B:09:77:80:0A:96:ED
            X509v3 Authority Key Identifier: 
                keyid:F4:A7:C0:CC:91:46:AF:64:F3:91:F2:27:F8:C8:B2:6F:8A:87:32:73
                DirName:/C=DE/ST=Hessen/O=privacyidea/CN=CA001
                serial:FB:C8:EB:AC:83:CD:12:07

            X509v3 Extended Key Usage: 
                TLS Web Server Authentication
    Signature Algorithm: sha256WithRSAEncryption
         b4:07:e4:2a:7c:af:21:4c:8d:f3:56:7d:26:10:34:18:c4:ef:
         5b:32:c8:77:6c:66:59:51:bb:28:e6:27:7f:62:fb:10:1c:96:
         9a:d1:98:b3:db:ee:07:10:7b:02:64:0e:64:07:f3:ad:69:16:
         02:73:0e:58:cf:61:ac:b4:51:b2:02:4c:42:85:d7:b5:90:68:
         d4:31:16:81:ed:77:83:66:63:2a:72:a4:e2:8b:78:65:33:ae:
         7b:e6:19:e7:0e:ee:71:ce:26:ac:e0:c9:34:69:86:f0:bf:85:
         42:4f:9e:86:74:23:f9:30:2e:e6:4e:74:65:7f:a2:fd:62:55:
         31:f6:9b:a6:aa:11:75:f8:d7:d6:24:86:fa:98:f1:04:1e:25:
         f1:b9:64:c8:9e:42:69:f4:2e:02:4f:cc:a3:a1:d4:25:5d:b6:
         eb:86:7b:43:c9:29:9a:64:94:e8:bb:b9:ee:44:41:62:dc:7d:
         5a:73:8f:f8:d6:2b:6a:b3:57:3f:4c:03:e2:80:46:d9:5a:16:
         db:b8:f3:41:73:a6:c7:e8:a9:de:46:52:a7:ae:73:ba:71:c1:
         26:19:94:5a:92:91:cb:05:9f:0a:13:09:30:21:5e:c5:c3:cd:
         9c:fb:8a:6d:91:83:0e:6f:cf:bd:d5:51:f7:b3:16:86:cc:98:
         b7:9c:fc:ef
-----BEGIN CERTIFICATE-----
MIIEJjCCAw6gAwIBAgIEEAAA9jANBgkqhkiG9w0BAQsFADBEMQswCQYDVQQGEwJE
RTEPMA0GA1UECAwGSGVzc2VuMRQwEgYDVQQKDAtwcml2YWN5aWRlYTEOMAwGA1UE
AwwFQ0EwMDEwHhcNMTkwMTA5MjA1MTMzWhcNMjAwMTA5MjA1MTMzWjBUMQswCQYD
VQQGEwJERTEPMA0GA1UECAwGSGVzc2VuMRQwEgYDVQQKDAtwcml2YWN5aWRlYTEe
MBwGA1UEAwwVcmVxdWVzdGVyLmxvY2FsZG9tYWluMIIBIjANBgkqhkiG9w0BAQEF
AAOCAQ8AMIIBCgKCAQEAzb4UT/rOAT9CIhsdnK/dktJ/22y3PjlDQ2sTA/EF9Ad0
vHZpKAuvGY7X/OPNxljyyn8IbVP8BwJEJMa0NEyMBP4zDkDiILoCc1r39U9jbszG
tt9UHTc5fVE2Jl+93D+oi2uirrad1iHn30G4eigqaEjKqC3t4elGXlpybbSEOIeR
/ZQRCyiExsIvKvsB+TZ6CXXRM4g8c0FbyL+UiXCh8MC5LlBTHrEXZGn0LYHgqQ0O
Mum6VYqF8RtvSXm0f4jDDT5UiJs9HziMBPPuamMr9cbbtIOqxHhBOn1L4cg+ccob
YVnqxsTKMl7J6b8SKebGw2P+oFXaevFgmE0m7fpwLQIDAQABo4IBDjCCAQowCwYD
VR0PBAQDAgWgMAkGA1UdEwQCMAAwEQYJYIZIAYb4QgEBBAQDAgZAMDMGCWCGSAGG
+EIBDQQmFiRPcGVuU1NMIEdlbmVyYXRlZCBTZXJ2ZXIgQ2VydGlmaWNhdGUwHQYD
VR0OBBYEFFM/7V0JB7Nle6tFySRbCXeACpbtMHQGA1UdIwRtMGuAFPSnwMyRRq9k
85HyJ/jIsm+KhzJzoUikRjBEMQswCQYDVQQGEwJERTEPMA0GA1UECAwGSGVzc2Vu
MRQwEgYDVQQKDAtwcml2YWN5aWRlYTEOMAwGA1UEAwwFQ0EwMDGCCQD7yOusg80S
BzATBgNVHSUEDDAKBggrBgEFBQcDATANBgkqhkiG9w0BAQsFAAOCAQEAtAfkKnyv
IUyN81Z9JhA0GMTvWzLId2xmWVG7KOYnf2L7EByWmtGYs9vuBxB7AmQOZAfzrWkW
AnMOWM9hrLRRsgJMQoXXtZBo1DEWge13g2ZjKnKk4ot4ZTOue+YZ5w7ucc4mrODJ
NGmG8L+FQk+ehnQj+TAu5k50ZX+i/WJVMfabpqoRdfjX1iSG+pjxBB4l8blkyJ5C
afQuAk/Mo6HUJV2264Z7Q8kpmmSU6Lu57kRBYtx9WnOP+NYrarNXP0wD4oBG2VoW
27jzQXOmx+ip3kZSp65zunHBJhmUWpKRywWfChMJMCFexcPNnPuKbZGDDm/PvdVR
97MWhsyYt5z87w==
-----END CERTIFICATE-----
