Certificate:
    Data:
        Version: 3 (0x2)
        Serial Number: 268435668 (0x100000d4)
    Signature Algorithm: sha256WithRSAEncryption
        Issuer: C=DE, ST=Hessen, O=privacyidea, CN=CA001
        Validity
            Not Before: Jun 14 15:32:38 2019 GMT
            Not After : Jul  3 15:32:38 2021 GMT
        Subject: CN=Steve Test/emailAddress=steve@openssl.org
        Subject Public Key Info:
            Public Key Algorithm: rsaEncryption
                Public-Key: (2048 bit)
                Modulus:
                    00:d2:81:89:20:51:48:0f:73:f4:11:32:24:d5:1f:
                    1c:fd:5c:f5:b6:e6:c5:f0:52:81:dc:d2:af:66:4a:
                    7c:93:31:61:5c:af:d1:6d:06:70:03:60:7c:72:0c:
                    88:dd:49:cd:9e:02:6c:d2:5a:d7:53:0f:f3:da:be:
                    69:64:b5:0f:0c:00:e3:b3:50:47:a3:b3:9b:ba:13:
                    50:d6:58:5a:4b:ab:39:e0:11:ca:0a:27:67:03:78:
                    22:66:6d:92:1e:1b:5c:49:ae:e6:6b:d1:8e:3b:9d:
                    06:d3:c6:ac:4d:53:43:10:ab:e8:96:c1:87:82:97:
                    99:8f:20:d3:99:12:37:31:84:e1:8a:ff:29:03:5f:
                    22:90:3e:7f:9b:e0:20:c1:ad:dc:ae:4c:39:1a:31:
                    96:17:02:8c:b2:d9:b4:0d:20:12:9b:7d:86:54:fd:
                    33:fd:c1:2a:62:46:f8:60:96:cf:6e:01:6f:22:df:
                    13:47:e7:97:ec:05:72:23:a3:62:f8:fa:ef:ac:9c:
                    72:f0:37:cb:2f:37:cf:90:a8:27:51:86:c6:d7:78:
                    08:8f:7e:25:a2:15:70:a2:fb:1c:b6:15:5e:a0:97:
                    8b:81:4c:09:28:8a:27:3b:94:bc:71:db:5b:71:37:
                    9a:2b:16:e0:6f:b5:c9:f5:4b:4f:20:ba:65:cf:af:
                    ad:ad
                Exponent: 65537 (0x10001)
        X509v3 extensions:
            X509v3 Key Usage: 
                Digital Signature, Key Encipherment
            X509v3 Basic Constraints: 
                CA:FALSE
            Netscape Cert Type: 
                SSL Server
            Netscape Comment: 
                OpenSSL Generated Server Certificate
            X509v3 Subject Key Identifier: 
                E5:25:6D:3E:AF:0D:DD:3F:4C:F2:45:19:39:D5:14:DB:7E:9C:C0:AD
            X509v3 Authority Key Identifier: 
                keyid:F4:A7:C0:CC:91:46:AF:64:F3:91:F2:27:F8:C8:B2:6F:8A:87:32:73
                DirName:/C=DE/ST=Hessen/O=privacyidea/CN=CA001
                serial:FB:C8:EB:AC:83:CD:12:07

            X509v3 Extended Key Usage: 
                TLS Web Server Authentication
    Signature Algorithm: sha256WithRSAEncryption
         1f:8f:fc:9e:ca:48:82:a3:c5:f7:7c:1a:c3:4c:6c:a0:40:51:
         95:48:c3:90:10:df:59:4c:6f:64:f8:2e:d3:46:25:97:17:c8:
         77:25:b9:4e:2c:68:01:b8:57:86:71:0f:69:b6:0b:9a:b5:22:
         09:e7:0a:e6:43:f4:35:01:53:66:72:19:79:22:59:e5:ef:6d:
         8c:4e:1e:f8:6a:d3:97:ca:38:24:c3:ab:5d:fb:98:d2:6e:45:
         56:c6:06:a0:3d:b1:c9:28:69:f6:46:47:c9:96:21:f1:52:e9:
         8b:b1:24:ec:7b:3d:8b:36:9d:ac:39:ab:d6:3b:17:48:75:13:
         16:2d:0b:f3:b1:b3:3c:d8:3d:10:70:63:37:6e:74:27:d7:02:
         ff:cf:df:ee:ac:09:6a:19:f5:a4:66:ee:b1:cb:d1:30:ec:15:
         2f:eb:dd:9d:69:73:3f:af:25:9f:d4:40:0f:13:12:a8:85:be:
         85:8f:ab:23:3f:8b:ba:44:ab:38:04:69:30:fd:b7:ac:e8:9d:
         56:f6:f6:0f:01:c6:34:37:35:cf:e5:19:51:28:f0:28:f5:29:
         39:2b:72:93:99:80:e7:50:f6:1a:4b:a9:d2:9d:af:b2:fd:a3:
         c6:0e:ab:18:93:5b:5d:c1:04:54:89:2b:a5:f1:b4:b2:16:8f:
         cf:4b:6a:ee
-----BEGIN CERTIFICATE-----
MIIECTCCAvGgAwIBAgIEEAAA1DANBgkqhkiG9w0BAQsFADBEMQswCQYDVQQGEwJE
RTEPMA0GA1UECAwGSGVzc2VuMRQwEgYDVQQKDAtwcml2YWN5aWRlYTEOMAwGA1UE
AwwFQ0EwMDEwHhcNMTkwNjE0MTUzMjM4WhcNMjEwNzAzMTUzMjM4WjA3MRMwEQYD
VQQDDApTdGV2ZSBUZXN0MSAwHgYJKoZIhvcNAQkBFhFzdGV2ZUBvcGVuc3NsLm9y
ZzCCASIwDQYJKoZIhvcNAQEBBQADggEPADCCAQoCggEBANKBiSBRSA9z9BEyJNUf
HP1c9bbmxfBSgdzSr2ZKfJMxYVyv0W0GcANgfHIMiN1JzZ4CbNJa11MP89q+aWS1
DwwA47NQR6Ozm7oTUNZYWkurOeARygonZwN4ImZtkh4bXEmu5mvRjjudBtPGrE1T
QxCr6JbBh4KXmY8g05kSNzGE4Yr/KQNfIpA+f5vgIMGt3K5MORoxlhcCjLLZtA0g
Ept9hlT9M/3BKmJG+GCWz24BbyLfE0fnl+wFciOjYvj676yccvA3yy83z5CoJ1GG
xtd4CI9+JaIVcKL7HLYVXqCXi4FMCSiKJzuUvHHbW3E3misW4G+1yfVLTyC6Zc+v
ra0CAwEAAaOCAQ4wggEKMAsGA1UdDwQEAwIFoDAJBgNVHRMEAjAAMBEGCWCGSAGG
+EIBAQQEAwIGQDAzBglghkgBhvhCAQ0EJhYkT3BlblNTTCBHZW5lcmF0ZWQgU2Vy
dmVyIENlcnRpZmljYXRlMB0GA1UdDgQWBBTlJW0+rw3dP0zyRRk51RTbfpzArTB0
BgNVHSMEbTBrgBT0p8DMkUavZPOR8if4yLJviocyc6FIpEYwRDELMAkGA1UEBhMC
REUxDzANBgNVBAgMBkhlc3NlbjEUMBIGA1UECgwLcHJpdmFjeWlkZWExDjAMBgNV
BAMMBUNBMDAxggkA+8jrrIPNEgcwEwYDVR0lBAwwCgYIKwYBBQUHAwEwDQYJKoZI
hvcNAQELBQADggEBAB+P/J7KSIKjxfd8GsNMbKBAUZVIw5AQ31lMb2T4LtNGJZcX
yHcluU4saAG4V4ZxD2m2C5q1IgnnCuZD9DUBU2ZyGXkiWeXvbYxOHvhq05fKOCTD
q137mNJuRVbGBqA9sckoafZGR8mWIfFS6YuxJOx7PYs2naw5q9Y7F0h1ExYtC/Ox
szzYPRBwYzdudCfXAv/P3+6sCWoZ9aRm7rHL0TDsFS/r3Z1pcz+vJZ/UQA8TEqiF
voWPqyM/i7pEqzgEaTD9t6zonVb29g8BxjQ3Nc/lGVEo8Cj1KTkrcpOZgOdQ9hpL
qdKdr7L9o8YOqxiTW13BBFSJK6XxtLIWj89Lau4=
-----END CERTIFICATE-----
