Certificate:
    Data:
        Version: 3 (0x2)
        Serial Number: 268435703 (0x100000f7)
    Signature Algorithm: sha256WithRSAEncryption
        Issuer: C=DE, ST=Hessen, O=privacyidea, CN=CA001
        Validity
            Not Before: Jan  9 20:51:34 2019 GMT
            Not After : Jan  9 20:51:34 2020 GMT
        Subject: C=DE, ST=Hessen, O=privacyidea, CN=usercert
        Subject Public Key Info:
            Public Key Algorithm: rsaEncryption
                Public-Key: (2048 bit)
                Modulus:
                    00:dc:2f:d1:5f:29:97:d4:7c:c3:53:c8:30:bd:4b:
                    67:70:2c:24:6b:b8:5e:eb:21:7a:48:12:56:7c:81:
                    5c:48:75:b6:68:eb:f6:f2:98:4e:50:51:d1:7f:6c:
                    73:f3:0a:a7:ae:be:48:5e:e5:d6:e1:d9:2a:7c:32:
                    6e:4e:fd:08:f6:5a:54:49:23:73:c3:b9:07:18:d1:
                    ef:b3:ac:f8:8a:dc:94:96:a4:90:3a:8e:74:df:e6:
                    0d:37:1b:bd:5b:b7:25:1a:56:39:da:6f:91:aa:5e:
                    1c:74:f3:f9:7c:14:01:83:12:65:76:c7:bb:fe:36:
                    5b:95:e9:72:65:83:ed:3e:98:30:71:fa:87:dd:a3:
                    36:5a:30:03:2e:26:e0:61:d1:bf:02:3f:b6:06:1f:
                    4a:89:28:1c:5c:a2:ff:4e:be:94:e6:8c:e0:da:82:
                    f1:9d:29:32:48:30:73:b4:04:f6:42:1e:be:f7:e2:
                    32:32:27:3c:9d:89:2f:70:3e:85:9a:6f:5c:c5:09:
                    c0:8c:32:2f:72:22:c9:d2:95:1f:b6:ac:72:60:72:
                    b7:82:4d:6b:ce:5b:e3:00:d0:d2:2f:58:c6:e0:10:
                    e5:51:ca:4d:3b:2e:e6:7e:ab:84:d6:56:f1:93:35:
                    a0:93:64:26:81:75:2f:91:b5:16:06:38:0b:db:cc:
                    2d:07
                Exponent: 65537 (0x10001)
        X509v3 extensions:
            X509v3 Key Usage: 
                Digital Signature, Key Encipherment
            X509v3 Basic Constraints: 
                CA:FALSE
            Netscape Cert Type: 
                SSL Server
            Netscape Comment: 
                OpenSSL Generated Server Certificate
            X509v3 Subject Key Identifier: 
                FC:14:D1:F0:4B:8D:00:90:F2:F5:B8:71:9E:4E:97:C3:92:54:AD:0B
            X509v3 Authority Key Identifier: 
                keyid:F4:A7:C0:CC:91:46:AF:64:F3:91:F2:27:F8:C8:B2:6F:8A:87:32:73
                DirName:/C=DE/ST=Hessen/O=privacyidea/CN=CA001
                serial:FB:C8:EB:AC:83:CD:12:07

            X509v3 Extended Key Usage: 
                TLS Web Server Authentication
    Signature Algorithm: sha256WithRSAEncryption
         7e:76:8e:79:01:59:6b:32:b5:c6:d9:1e:88:59:46:21:c3:95:
         b6:dd:e9:fb:07:d8:65:b7:ae:17:ac:3e:b4:9b:ab:d0:06:3d:
         ca:5d:af:a7:57:87:7d:55:0c:27:8d:6a:f5:8f:88:4d:b5:64:
         f7:46:7b:cd:75:bc:96:e1:1f:19:f8:e4:b7:09:99:0d:d7:5c:
         9f:99:83:89:08:fc:b0:4f:5e:f6:09:e4:2a:8d:30:84:35:50:
         ad:9e:2d:91:7b:58:dd:2a:e4:5f:46:87:eb:ac:a1:6f:15:5f:
         c6:21:81:d5:92:e7:8f:ef:0c:c1:d7:6c:6e:67:67:b5:cb:fe:
         fd:ae:14:bf:99:97:a6:d7:56:bb:7e:56:66:6d:f9:2a:76:be:
         b8:a7:3f:4d:c0:fe:fc:72:30:b3:b2:06:07:2d:44:69:b2:68:
         fb:c1:65:20:0c:1b:98:93:5b:16:cd:e1:8d:19:93:9d:25:27:
         c9:81:58:ff:2e:44:35:d3:f0:39:15:52:ec:e2:c6:0a:04:29:
         0b:35:d8:17:91:b6:cc:d9:cf:84:08:ea:9b:34:08:39:23:b6:
         0b:aa:74:5e:2e:2c:38:69:ca:2d:78:ab:92:e0:c2:82:de:34:
         00:db:2f:1f:0b:bd:70:06:76:1a:fd:6c:52:5c:02:38:17:32:
         28:e2:fe:3b
-----BEGIN CERTIFICATE-----
MIIEGTCCAwGgAwIBAgIEEAAA9zANBgkqhkiG9w0BAQsFADBEMQswCQYDVQQGEwJE
RTEPMA0GA1UECAwGSGVzc2VuMRQwEgYDVQQKDAtwcml2YWN5aWRlYTEOMAwGA1UE
AwwFQ0EwMDEwHhcNMTkwMTA5MjA1MTM0WhcNMjAwMTA5MjA1MTM0WjBHMQswCQYD
VQQGEwJERTEPMA0GA1UECAwGSGVzc2VuMRQwEgYDVQQKDAtwcml2YWN5aWRlYTER
MA8GA1UEAwwIdXNlcmNlcnQwggEiMA0GCSqGSIb3DQEBAQUAA4IBDwAwggEKAoIB
AQDcL9FfKZfUfMNTyDC9S2dwLCRruF7rIXpIElZ8gVxIdbZo6/bymE5QUdF/bHPz
Cqeuvkhe5dbh2Sp8Mm5O/Qj2WlRJI3PDuQcY0e+zrPiK3JSWpJA6jnTf5g03G71b
tyUaVjnab5GqXhx08/l8FAGDEmV2x7v+NluV6XJlg+0+mDBx+ofdozZaMAMuJuBh
0b8CP7YGH0qJKBxcov9OvpTmjODagvGdKTJIMHO0BPZCHr734jIyJzydiS9wPoWa
b1zFCcCMMi9yIsnSlR+2rHJgcreCTWvOW+MA0NIvWMbgEOVRyk07LuZ+q4TWVvGT
NaCTZCaBdS+RtRYGOAvbzC0HAgMBAAGjggEOMIIBCjALBgNVHQ8EBAMCBaAwCQYD
VR0TBAIwADARBglghkgBhvhCAQEEBAMCBkAwMwYJYIZIAYb4QgENBCYWJE9wZW5T
U0wgR2VuZXJhdGVkIFNlcnZlciBDZXJ0aWZpY2F0ZTAdBgNVHQ4EFgQU/BTR8EuN
AJDy9bhxnk6Xw5JUrQswdAYDVR0jBG0wa4AU9KfAzJFGr2TzkfIn+Miyb4qHMnOh
SKRGMEQxCzAJBgNVBAYTAkRFMQ8wDQYDVQQIDAZIZXNzZW4xFDASBgNVBAoMC3By
aXZhY3lpZGVhMQ4wDAYDVQQDDAVDQTAwMYIJAPvI66yDzRIHMBMGA1UdJQQMMAoG
CCsGAQUFBwMBMA0GCSqGSIb3DQEBCwUAA4IBAQB+do55AVlrMrXG2R6IWUYhw5W2
3en7B9hlt64XrD60m6vQBj3KXa+nV4d9VQwnjWr1j4hNtWT3RnvNdbyW4R8Z+OS3
CZkN11yfmYOJCPywT172CeQqjTCENVCtni2Re1jdKuRfRofrrKFvFV/GIYHVkueP
7wzB12xuZ2e1y/79rhS/mZem11a7flZmbfkqdr64pz9NwP78cjCzsgYHLURpsmj7
wWUgDBuYk1sWzeGNGZOdJSfJgVj/LkQ10/A5FVLs4sYKBCkLNdgXkbbM2c+ECOqb
NAg5I7YLqnReLiw4acoteKuS4MKC3jQA2y8fC71wBnYa/WxSXAI4FzIo4v47
-----END CERTIFICATE-----
