Certificate:
    Data:
        Version: 3 (0x2)
        Serial Number: 268435691 (0x100000eb)
    Signature Algorithm: sha256WithRSAEncryption
        Issuer: C=DE, ST=Hessen, O=privacyidea, CN=CA001
        Validity
            Not Before: Apr 16 14:33:24 2019 GMT
            Not After : May  5 14:33:24 2021 GMT
        Subject: CN=Steve Test/emailAddress=steve@openssl.org
        Subject Public Key Info:
            Public Key Algorithm: rsaEncryption
                Public-Key: (2048 bit)
                Modulus:
                    00:d2:81:89:20:51:48:0f:73:f4:11:32:24:d5:1f:
                    1c:fd:5c:f5:b6:e6:c5:f0:52:81:dc:d2:af:66:4a:
                    7c:93:31:61:5c:af:d1:6d:06:70:03:60:7c:72:0c:
                    88:dd:49:cd:9e:02:6c:d2:5a:d7:53:0f:f3:da:be:
                    69:64:b5:0f:0c:00:e3:b3:50:47:a3:b3:9b:ba:13:
                    50:d6:58:5a:4b:ab:39:e0:11:ca:0a:27:67:03:78:
                    22:66:6d:92:1e:1b:5c:49:ae:e6:6b:d1:8e:3b:9d:
                    06:d3:c6:ac:4d:53:43:10:ab:e8:96:c1:87:82:97:
                    99:8f:20:d3:99:12:37:31:84:e1:8a:ff:29:03:5f:
                    22:90:3e:7f:9b:e0:20:c1:ad:dc:ae:4c:39:1a:31:
                    96:17:02:8c:b2:d9:b4:0d:20:12:9b:7d:86:54:fd:
                    33:fd:c1:2a:62:46:f8:60:96:cf:6e:01:6f:22:df:
                    13:47:e7:97:ec:05:72:23:a3:62:f8:fa:ef:ac:9c:
                    72:f0:37:cb:2f:37:cf:90:a8:27:51:86:c6:d7:78:
                    08:8f:7e:25:a2:15:70:a2:fb:1c:b6:15:5e:a0:97:
                    8b:81:4c:09:28:8a:27:3b:94:bc:71:db:5b:71:37:
                    9a:2b:16:e0:6f:b5:c9:f5:4b:4f:20:ba:65:cf:af:
                    ad:ad
                Exponent: 65537 (0x10001)
        X509v3 extensions:
            X509v3 Key Usage: 
                Digital Signature, Key Encipherment
            X509v3 Basic Constraints: 
                CA:FALSE
            Netscape Cert Type: 
                SSL Server
            Netscape Comment: 
                OpenSSL Generated Server Certificate
            X509v3 Subject Key Identifier: 
                E5:25:6D:3E:AF:0D:DD:3F:4C:F2:45:19:39:D5:14:DB:7E:9C:C0:AD
            X509v3 Authority Key Identifier: 
                keyid:F4:A7:C0:CC:91:46:AF:64:F3:91:F2:27:F8:C8:B2:6F:8A:87:32:73
                DirName:/C=DE/ST=Hessen/O=privacyidea/CN=CA001
                serial:FB:C8:EB:AC:83:CD:12:07

            X509v3 Extended Key Usage: 
                TLS Web Server Authentication
    Signature Algorithm: sha256WithRSAEncryption
         73:b7:cc:7a:81:14:d4:a3:a0:a5:c8:b1:87:a8:df:ec:a4:72:
         bf:89:78:df:d0:da:4f:36:95:7f:3e:44:7d:85:0d:3d:2e:e9:
         3a:3d:c1:b3:1b:1d:ed:3c:5c:a3:7a:8c:6e:75:29:f7:46:fe:
         c6:85:52:30:90:73:40:67:26:40:95:be:fd:c4:ff:96:72:45:
         83:57:b4:d6:b9:86:27:58:db:4e:e8:2a:76:9c:50:aa:64:2b:
         f7:96:3e:41:7b:36:72:2b:52:ad:03:d9:c0:f7:29:07:b5:a9:
         0d:f1:4c:f7:f2:7d:21:c4:12:39:52:7e:56:22:f2:7b:d4:4a:
         c2:97:44:7e:8c:c1:76:08:fe:93:f9:d3:58:b3:fb:b9:01:a9:
         08:df:3c:5e:a5:ed:9c:f0:82:e5:52:54:fa:8b:ab:02:5d:cd:
         ca:ac:78:fd:59:5a:ac:14:5b:19:b4:1a:15:6f:41:ae:fc:1b:
         be:8a:25:5f:2e:d0:67:d8:0a:3b:08:02:2a:fd:93:68:39:90:
         ba:43:4a:0d:62:06:cb:bb:13:c7:1c:39:cf:d9:8e:85:4f:93:
         cf:18:6c:6c:09:af:6e:19:8c:3a:31:0a:e5:f0:fd:57:db:b7:
         78:c3:08:a5:f4:88:7c:2e:c7:0d:90:89:f3:75:e1:4b:69:4f:
         3c:35:04:00
-----BEGIN CERTIFICATE-----
MIIECTCCAvGgAwIBAgIEEAAA6zANBgkqhkiG9w0BAQsFADBEMQswCQYDVQQGEwJE
RTEPMA0GA1UECAwGSGVzc2VuMRQwEgYDVQQKDAtwcml2YWN5aWRlYTEOMAwGA1UE
AwwFQ0EwMDEwHhcNMTkwNDE2MTQzMzI0WhcNMjEwNTA1MTQzMzI0WjA3MRMwEQYD
VQQDDApTdGV2ZSBUZXN0MSAwHgYJKoZIhvcNAQkBFhFzdGV2ZUBvcGVuc3NsLm9y
ZzCCASIwDQYJKoZIhvcNAQEBBQADggEPADCCAQoCggEBANKBiSBRSA9z9BEyJNUf
HP1c9bbmxfBSgdzSr2ZKfJMxYVyv0W0GcANgfHIMiN1JzZ4CbNJa11MP89q+aWS1
DwwA47NQR6Ozm7oTUNZYWkurOeARygonZwN4ImZtkh4bXEmu5mvRjjudBtPGrE1T
QxCr6JbBh4KXmY8g05kSNzGE4Yr/KQNfIpA+f5vgIMGt3K5MORoxlhcCjLLZtA0g
Ept9hlT9M/3BKmJG+GCWz24BbyLfE0fnl+wFciOjYvj676yccvA3yy83z5CoJ1GG
xtd4CI9+JaIVcKL7HLYVXqCXi4FMCSiKJzuUvHHbW3E3misW4G+1yfVLTyC6Zc+v
ra0CAwEAAaOCAQ4wggEKMAsGA1UdDwQEAwIFoDAJBgNVHRMEAjAAMBEGCWCGSAGG
+EIBAQQEAwIGQDAzBglghkgBhvhCAQ0EJhYkT3BlblNTTCBHZW5lcmF0ZWQgU2Vy
dmVyIENlcnRpZmljYXRlMB0GA1UdDgQWBBTlJW0+rw3dP0zyRRk51RTbfpzArTB0
BgNVHSMEbTBrgBT0p8DMkUavZPOR8if4yLJviocyc6FIpEYwRDELMAkGA1UEBhMC
REUxDzANBgNVBAgMBkhlc3NlbjEUMBIGA1UECgwLcHJpdmFjeWlkZWExDjAMBgNV
BAMMBUNBMDAxggkA+8jrrIPNEgcwEwYDVR0lBAwwCgYIKwYBBQUHAwEwDQYJKoZI
hvcNAQELBQADggEBAHO3zHqBFNSjoKXIsYeo3+ykcr+JeN/Q2k82lX8+RH2FDT0u
6To9wbMbHe08XKN6jG51KfdG/saFUjCQc0BnJkCVvv3E/5ZyRYNXtNa5hidY207o
KnacUKpkK/eWPkF7NnIrUq0D2cD3KQe1qQ3xTPfyfSHEEjlSflYi8nvUSsKXRH6M
wXYI/pP501iz+7kBqQjfPF6l7ZzwguVSVPqLqwJdzcqseP1ZWqwUWxm0GhVvQa78
G76KJV8u0GfYCjsIAir9k2g5kLpDSg1iBsu7E8ccOc/ZjoVPk88YbGwJr24ZjDox
CuXw/Vfbt3jDCKX0iHwuxw2QifN14UtpTzw1BAA=
-----END CERTIFICATE-----
