Certificate:
    Data:
        Version: 3 (0x2)
        Serial Number: 268435690 (0x100000ea)
    Signature Algorithm: sha256WithRSAEncryption
        Issuer: C=DE, ST=Hessen, O=privacyidea, CN=CA001
        Validity
            Not Before: Apr 16 14:33:24 2019 GMT
            Not After : Apr 15 14:33:24 2020 GMT
        Subject: CN=Steve Test/emailAddress=steve@openssl.org
        Subject Public Key Info:
            Public Key Algorithm: rsaEncryption
                Public-Key: (2048 bit)
                Modulus:
                    00:d2:81:89:20:51:48:0f:73:f4:11:32:24:d5:1f:
                    1c:fd:5c:f5:b6:e6:c5:f0:52:81:dc:d2:af:66:4a:
                    7c:93:31:61:5c:af:d1:6d:06:70:03:60:7c:72:0c:
                    88:dd:49:cd:9e:02:6c:d2:5a:d7:53:0f:f3:da:be:
                    69:64:b5:0f:0c:00:e3:b3:50:47:a3:b3:9b:ba:13:
                    50:d6:58:5a:4b:ab:39:e0:11:ca:0a:27:67:03:78:
                    22:66:6d:92:1e:1b:5c:49:ae:e6:6b:d1:8e:3b:9d:
                    06:d3:c6:ac:4d:53:43:10:ab:e8:96:c1:87:82:97:
                    99:8f:20:d3:99:12:37:31:84:e1:8a:ff:29:03:5f:
                    22:90:3e:7f:9b:e0:20:c1:ad:dc:ae:4c:39:1a:31:
                    96:17:02:8c:b2:d9:b4:0d:20:12:9b:7d:86:54:fd:
                    33:fd:c1:2a:62:46:f8:60:96:cf:6e:01:6f:22:df:
                    13:47:e7:97:ec:05:72:23:a3:62:f8:fa:ef:ac:9c:
                    72:f0:37:cb:2f:37:cf:90:a8:27:51:86:c6:d7:78:
                    08:8f:7e:25:a2:15:70:a2:fb:1c:b6:15:5e:a0:97:
                    8b:81:4c:09:28:8a:27:3b:94:bc:71:db:5b:71:37:
                    9a:2b:16:e0:6f:b5:c9:f5:4b:4f:20:ba:65:cf:af:
                    ad:ad
                Exponent: 65537 (0x10001)
        X509v3 extensions:
            X509v3 Key Usage: 
                Digital Signature, Key Encipherment
            X509v3 Basic Constraints: 
                CA:FALSE
            Netscape Cert Type: 
                SSL Server
            Netscape Comment: 
                OpenSSL Generated Server Certificate
            X509v3 Subject Key Identifier: 
                E5:25:6D:3E:AF:0D:DD:3F:4C:F2:45:19:39:D5:14:DB:7E:9C:C0:AD
            X509v3 Authority Key Identifier: 
                keyid:F4:A7:C0:CC:91:46:AF:64:F3:91:F2:27:F8:C8:B2:6F:8A:87:32:73
                DirName:/C=DE/ST=Hessen/O=privacyidea/CN=CA001
                serial:FB:C8:EB:AC:83:CD:12:07

            X509v3 Extended Key Usage: 
                TLS Web Server Authentication
    Signature Algorithm: sha256WithRSAEncryption
         2f:81:09:bd:48:80:65:30:0f:0d:84:9c:06:0b:4e:0d:62:bf:
         a3:48:b3:8b:8e:dd:a2:7d:2f:8b:5e:70:1a:49:ca:04:b9:bd:
         ef:09:f2:be:37:df:e0:5e:ac:0c:f8:0a:64:8d:41:6a:f4:bf:
         d7:00:d9:b7:a9:ca:eb:f2:2b:11:4d:61:d3:da:74:cc:03:36:
         eb:46:8a:9b:b4:2d:03:85:2d:eb:06:8d:95:af:4f:34:28:39:
         0e:ad:6d:ca:2e:69:af:4b:36:f9:bb:b5:5b:c9:61:73:1e:b5:
         ce:0e:a9:09:95:df:90:2d:74:88:9a:c4:c9:8f:eb:c9:6e:35:
         ed:29:93:10:0a:17:2c:57:37:11:57:6f:14:22:d4:67:cf:a8:
         ca:ed:90:b2:20:68:ce:bf:0b:fc:ef:f4:d5:fe:d4:c7:38:74:
         84:79:6e:7f:48:3d:2f:23:b1:50:91:2e:3b:a8:eb:e7:5d:7f:
         0d:80:ec:38:7d:2f:41:7d:cf:54:ef:6d:5c:db:3f:56:51:69:
         70:ae:10:e2:88:1c:bb:b8:87:45:e7:cc:cc:0b:ab:56:cb:2f:
         54:c1:e1:0c:8d:ac:49:f6:a4:7c:96:cd:16:4d:63:36:03:80:
         0a:41:05:b3:c3:6f:ff:e9:fb:ac:db:23:3f:31:3c:08:30:aa:
         f6:c4:f5:8b
-----BEGIN CERTIFICATE-----
MIIECTCCAvGgAwIBAgIEEAAA6jANBgkqhkiG9w0BAQsFADBEMQswCQYDVQQGEwJE
RTEPMA0GA1UECAwGSGVzc2VuMRQwEgYDVQQKDAtwcml2YWN5aWRlYTEOMAwGA1UE
AwwFQ0EwMDEwHhcNMTkwNDE2MTQzMzI0WhcNMjAwNDE1MTQzMzI0WjA3MRMwEQYD
VQQDDApTdGV2ZSBUZXN0MSAwHgYJKoZIhvcNAQkBFhFzdGV2ZUBvcGVuc3NsLm9y
ZzCCASIwDQYJKoZIhvcNAQEBBQADggEPADCCAQoCggEBANKBiSBRSA9z9BEyJNUf
HP1c9bbmxfBSgdzSr2ZKfJMxYVyv0W0GcANgfHIMiN1JzZ4CbNJa11MP89q+aWS1
DwwA47NQR6Ozm7oTUNZYWkurOeARygonZwN4ImZtkh4bXEmu5mvRjjudBtPGrE1T
QxCr6JbBh4KXmY8g05kSNzGE4Yr/KQNfIpA+f5vgIMGt3K5MORoxlhcCjLLZtA0g
Ept9hlT9M/3BKmJG+GCWz24BbyLfE0fnl+wFciOjYvj676yccvA3yy83z5CoJ1GG
xtd4CI9+JaIVcKL7HLYVXqCXi4FMCSiKJzuUvHHbW3E3misW4G+1yfVLTyC6Zc+v
ra0CAwEAAaOCAQ4wggEKMAsGA1UdDwQEAwIFoDAJBgNVHRMEAjAAMBEGCWCGSAGG
+EIBAQQEAwIGQDAzBglghkgBhvhCAQ0EJhYkT3BlblNTTCBHZW5lcmF0ZWQgU2Vy
dmVyIENlcnRpZmljYXRlMB0GA1UdDgQWBBTlJW0+rw3dP0zyRRk51RTbfpzArTB0
BgNVHSMEbTBrgBT0p8DMkUavZPOR8if4yLJviocyc6FIpEYwRDELMAkGA1UEBhMC
REUxDzANBgNVBAgMBkhlc3NlbjEUMBIGA1UECgwLcHJpdmFjeWlkZWExDjAMBgNV
BAMMBUNBMDAxggkA+8jrrIPNEgcwEwYDVR0lBAwwCgYIKwYBBQUHAwEwDQYJKoZI
hvcNAQELBQADggEBAC+BCb1IgGUwDw2EnAYLTg1iv6NIs4uO3aJ9L4tecBpJygS5
ve8J8r433+BerAz4CmSNQWr0v9cA2bepyuvyKxFNYdPadMwDNutGipu0LQOFLesG
jZWvTzQoOQ6tbcouaa9LNvm7tVvJYXMetc4OqQmV35AtdIiaxMmP68luNe0pkxAK
FyxXNxFXbxQi1GfPqMrtkLIgaM6/C/zv9NX+1Mc4dIR5bn9IPS8jsVCRLjuo6+dd
fw2A7Dh9L0F9z1TvbVzbP1ZRaXCuEOKIHLu4h0XnzMwLq1bLL1TB4QyNrEn2pHyW
zRZNYzYDgApBBbPDb//p+6zbIz8xPAgwqvbE9Ys=
-----END CERTIFICATE-----
