Certificate:
    Data:
        Version: 3 (0x2)
        Serial Number: 268435666 (0x100000d2)
    Signature Algorithm: sha256WithRSAEncryption
        Issuer: C=DE, ST=Hessen, O=privacyidea, CN=CA001
        Validity
            Not Before: Jun 14 15:32:38 2019 GMT
            Not After : Jun 13 15:32:38 2020 GMT
        Subject: C=DE, ST=Hessen, O=privacyidea, CN=usercert
        Subject Public Key Info:
            Public Key Algorithm: rsaEncryption
                Public-Key: (2048 bit)
                Modulus:
                    00:dc:2f:d1:5f:29:97:d4:7c:c3:53:c8:30:bd:4b:
                    67:70:2c:24:6b:b8:5e:eb:21:7a:48:12:56:7c:81:
                    5c:48:75:b6:68:eb:f6:f2:98:4e:50:51:d1:7f:6c:
                    73:f3:0a:a7:ae:be:48:5e:e5:d6:e1:d9:2a:7c:32:
                    6e:4e:fd:08:f6:5a:54:49:23:73:c3:b9:07:18:d1:
                    ef:b3:ac:f8:8a:dc:94:96:a4:90:3a:8e:74:df:e6:
                    0d:37:1b:bd:5b:b7:25:1a:56:39:da:6f:91:aa:5e:
                    1c:74:f3:f9:7c:14:01:83:12:65:76:c7:bb:fe:36:
                    5b:95:e9:72:65:83:ed:3e:98:30:71:fa:87:dd:a3:
                    36:5a:30:03:2e:26:e0:61:d1:bf:02:3f:b6:06:1f:
                    4a:89:28:1c:5c:a2:ff:4e:be:94:e6:8c:e0:da:82:
                    f1:9d:29:32:48:30:73:b4:04:f6:42:1e:be:f7:e2:
                    32:32:27:3c:9d:89:2f:70:3e:85:9a:6f:5c:c5:09:
                    c0:8c:32:2f:72:22:c9:d2:95:1f:b6:ac:72:60:72:
                    b7:82:4d:6b:ce:5b:e3:00:d0:d2:2f:58:c6:e0:10:
                    e5:51:ca:4d:3b:2e:e6:7e:ab:84:d6:56:f1:93:35:
                    a0:93:64:26:81:75:2f:91:b5:16:06:38:0b:db:cc:
                    2d:07
                Exponent: 65537 (0x10001)
        X509v3 extensions:
            X509v3 Key Usage: 
                Digital Signature, Key Encipherment
            X509v3 Basic Constraints: 
                CA:FALSE
            Netscape Cert Type: 
                SSL Server
            Netscape Comment: 
                OpenSSL Generated Server Certificate
            X509v3 Subject Key Identifier: 
                FC:14:D1:F0:4B:8D:00:90:F2:F5:B8:71:9E:4E:97:C3:92:54:AD:0B
            X509v3 Authority Key Identifier: 
                keyid:F4:A7:C0:CC:91:46:AF:64:F3:91:F2:27:F8:C8:B2:6F:8A:87:32:73
                DirName:/C=DE/ST=Hessen/O=privacyidea/CN=CA001
                serial:FB:C8:EB:AC:83:CD:12:07

            X509v3 Extended Key Usage: 
                TLS Web Server Authentication
    Signature Algorithm: sha256WithRSAEncryption
         51:a1:5a:90:ff:62:e7:b9:9e:98:a5:33:6b:41:d5:ec:21:25:
         3a:a0:94:66:59:f3:98:66:7d:87:70:4d:a6:f6:c6:bf:16:5e:
         8d:34:8c:71:26:4c:67:48:84:5a:9f:7e:d0:8c:48:dd:c5:0d:
         fb:fb:fa:6b:fe:0c:b1:1c:72:e6:ee:62:d3:7c:d8:bb:42:da:
         3e:3f:23:fa:c7:62:c0:09:97:64:49:49:bc:a6:7b:99:1f:72:
         f5:1c:63:ae:22:59:74:9c:40:85:f2:d3:84:bf:f5:c3:88:5b:
         49:80:0a:c4:3c:48:e7:1f:db:0f:b0:1f:c8:81:5b:08:bb:6c:
         16:09:4a:1b:81:cf:a5:71:5e:13:ad:37:46:db:d6:a1:c4:81:
         21:a4:a4:1d:5b:82:5b:f6:ad:64:42:40:65:5a:eb:90:30:14:
         58:d4:79:ec:07:d2:98:18:f4:9e:2d:c7:13:37:4b:12:24:f5:
         5e:17:21:58:27:ed:aa:d1:c0:b7:ac:21:da:95:df:19:3f:f0:
         33:a9:c4:27:19:6e:d4:1f:4b:10:f1:ce:62:0d:8a:77:eb:a9:
         a2:50:a9:d6:80:df:eb:7e:01:8b:2a:0b:87:e5:63:af:44:5a:
         ef:e2:50:91:02:62:01:fb:ce:08:12:14:7d:f7:77:8b:d1:f8:
         0f:4a:60:ff
-----BEGIN CERTIFICATE-----
MIIEGTCCAwGgAwIBAgIEEAAA0jANBgkqhkiG9w0BAQsFADBEMQswCQYDVQQGEwJE
RTEPMA0GA1UECAwGSGVzc2VuMRQwEgYDVQQKDAtwcml2YWN5aWRlYTEOMAwGA1UE
AwwFQ0EwMDEwHhcNMTkwNjE0MTUzMjM4WhcNMjAwNjEzMTUzMjM4WjBHMQswCQYD
VQQGEwJERTEPMA0GA1UECAwGSGVzc2VuMRQwEgYDVQQKDAtwcml2YWN5aWRlYTER
MA8GA1UEAwwIdXNlcmNlcnQwggEiMA0GCSqGSIb3DQEBAQUAA4IBDwAwggEKAoIB
AQDcL9FfKZfUfMNTyDC9S2dwLCRruF7rIXpIElZ8gVxIdbZo6/bymE5QUdF/bHPz
Cqeuvkhe5dbh2Sp8Mm5O/Qj2WlRJI3PDuQcY0e+zrPiK3JSWpJA6jnTf5g03G71b
tyUaVjnab5GqXhx08/l8FAGDEmV2x7v+NluV6XJlg+0+mDBx+ofdozZaMAMuJuBh
0b8CP7YGH0qJKBxcov9OvpTmjODagvGdKTJIMHO0BPZCHr734jIyJzydiS9wPoWa
b1zFCcCMMi9yIsnSlR+2rHJgcreCTWvOW+MA0NIvWMbgEOVRyk07LuZ+q4TWVvGT
NaCTZCaBdS+RtRYGOAvbzC0HAgMBAAGjggEOMIIBCjALBgNVHQ8EBAMCBaAwCQYD
VR0TBAIwADARBglghkgBhvhCAQEEBAMCBkAwMwYJYIZIAYb4QgENBCYWJE9wZW5T
U0wgR2VuZXJhdGVkIFNlcnZlciBDZXJ0aWZpY2F0ZTAdBgNVHQ4EFgQU/BTR8EuN
AJDy9bhxnk6Xw5JUrQswdAYDVR0jBG0wa4AU9KfAzJFGr2TzkfIn+Miyb4qHMnOh
SKRGMEQxCzAJBgNVBAYTAkRFMQ8wDQYDVQQIDAZIZXNzZW4xFDASBgNVBAoMC3By
aXZhY3lpZGVhMQ4wDAYDVQQDDAVDQTAwMYIJAPvI66yDzRIHMBMGA1UdJQQMMAoG
CCsGAQUFBwMBMA0GCSqGSIb3DQEBCwUAA4IBAQBRoVqQ/2LnuZ6YpTNrQdXsISU6
oJRmWfOYZn2HcE2m9sa/Fl6NNIxxJkxnSIRan37QjEjdxQ37+/pr/gyxHHLm7mLT
fNi7Qto+PyP6x2LACZdkSUm8pnuZH3L1HGOuIll0nECF8tOEv/XDiFtJgArEPEjn
H9sPsB/IgVsIu2wWCUobgc+lcV4TrTdG29ahxIEhpKQdW4Jb9q1kQkBlWuuQMBRY
1HnsB9KYGPSeLccTN0sSJPVeFyFYJ+2q0cC3rCHald8ZP/AzqcQnGW7UH0sQ8c5i
DYp366miUKnWgN/rfgGLKguH5WOvRFrv4lCRAmIB+84IEhR993eL0fgPSmD/
-----END CERTIFICATE-----
