Certificate:
    Data:
        Version: 3 (0x2)
        Serial Number: 268435698 (0x100000f2)
    Signature Algorithm: sha256WithRSAEncryption
        Issuer: C=DE, ST=Hessen, O=privacyidea, CN=CA001
        Validity
            Not Before: Jan  9 20:09:22 2019 GMT
            Not After : Jan  9 20:09:22 2020 GMT
        Subject: C=DE, ST=Hessen, O=privacyidea, CN=requester.localdomain
        Subject Public Key Info:
            Public Key Algorithm: rsaEncryption
                Public-Key: (2048 bit)
                Modulus:
                    00:cd:be:14:4f:fa:ce:01:3f:42:22:1b:1d:9c:af:
                    dd:92:d2:7f:db:6c:b7:3e:39:43:43:6b:13:03:f1:
                    05:f4:07:74:bc:76:69:28:0b:af:19:8e:d7:fc:e3:
                    cd:c6:58:f2:ca:7f:08:6d:53:fc:07:02:44:24:c6:
                    b4:34:4c:8c:04:fe:33:0e:40:e2:20:ba:02:73:5a:
                    f7:f5:4f:63:6e:cc:c6:b6:df:54:1d:37:39:7d:51:
                    36:26:5f:bd:dc:3f:a8:8b:6b:a2:ae:b6:9d:d6:21:
                    e7:df:41:b8:7a:28:2a:68:48:ca:a8:2d:ed:e1:e9:
                    46:5e:5a:72:6d:b4:84:38:87:91:fd:94:11:0b:28:
                    84:c6:c2:2f:2a:fb:01:f9:36:7a:09:75:d1:33:88:
                    3c:73:41:5b:c8:bf:94:89:70:a1:f0:c0:b9:2e:50:
                    53:1e:b1:17:64:69:f4:2d:81:e0:a9:0d:0e:32:e9:
                    ba:55:8a:85:f1:1b:6f:49:79:b4:7f:88:c3:0d:3e:
                    54:88:9b:3d:1f:38:8c:04:f3:ee:6a:63:2b:f5:c6:
                    db:b4:83:aa:c4:78:41:3a:7d:4b:e1:c8:3e:71:ca:
                    1b:61:59:ea:c6:c4:ca:32:5e:c9:e9:bf:12:29:e6:
                    c6:c3:63:fe:a0:55:da:7a:f1:60:98:4d:26:ed:fa:
                    70:2d
                Exponent: 65537 (0x10001)
        X509v3 extensions:
            X509v3 Key Usage: 
                Digital Signature, Key Encipherment
            X509v3 Basic Constraints: 
                CA:FALSE
            Netscape Cert Type: 
                SSL Server
            Netscape Comment: 
                OpenSSL Generated Server Certificate
            X509v3 Subject Key Identifier: 
                53:3F:ED:5D:09:07:B3:65:7B:AB:45:C9:24:5B:09:77:80:0A:96:ED
            X509v3 Authority Key Identifier: 
                keyid:F4:A7:C0:CC:91:46:AF:64:F3:91:F2:27:F8:C8:B2:6F:8A:87:32:73
                DirName:/C=DE/ST=Hessen/O=privacyidea/CN=CA001
                serial:FB:C8:EB:AC:83:CD:12:07

            X509v3 Extended Key Usage: 
                TLS Web Server Authentication
    Signature Algorithm: sha256WithRSAEncryption
         65:19:f8:3f:4a:31:69:8f:6b:47:33:b7:a5:16:f6:16:85:2e:
         84:6c:25:b2:75:a0:52:ee:5c:c8:f3:a2:ac:cc:c8:45:aa:43:
         4f:d0:aa:9c:c4:82:ae:93:4b:b4:64:ef:d3:16:c2:10:56:36:
         de:f6:ba:2d:a7:d1:cc:ad:be:e4:be:df:af:2e:ce:69:7b:b6:
         d5:03:81:48:74:f7:e9:43:ff:d5:c9:0a:6a:d2:85:83:e6:82:
         93:6c:22:e1:18:3e:91:50:e5:9b:6d:ec:a6:74:eb:bf:63:9d:
         b1:4b:9b:79:84:67:7b:88:7a:11:1b:86:b6:4a:5c:b7:18:fc:
         58:c4:8d:a5:fe:6e:7e:63:12:89:19:74:a5:43:41:2b:ae:09:
         c0:49:b9:e3:a3:50:4b:9b:1d:89:40:38:2b:a2:02:40:59:bf:
         21:01:0b:7a:af:90:f7:91:cb:6b:ea:64:a3:fc:d1:f6:bb:47:
         a8:82:21:ad:0e:d4:c9:94:7a:28:c1:9a:01:4c:0f:84:57:cd:
         23:42:41:44:b9:14:dc:53:94:50:d4:18:56:6c:5f:00:ab:45:
         01:64:61:8f:15:de:27:84:ee:5d:82:5c:6d:80:d9:aa:d5:73:
         87:72:68:41:3c:b8:26:25:b3:18:62:ff:2c:05:38:14:13:e4:
         50:c2:73:05
-----BEGIN CERTIFICATE-----
MIIEJjCCAw6gAwIBAgIEEAAA8jANBgkqhkiG9w0BAQsFADBEMQswCQYDVQQGEwJE
RTEPMA0GA1UECAwGSGVzc2VuMRQwEgYDVQQKDAtwcml2YWN5aWRlYTEOMAwGA1UE
AwwFQ0EwMDEwHhcNMTkwMTA5MjAwOTIyWhcNMjAwMTA5MjAwOTIyWjBUMQswCQYD
VQQGEwJERTEPMA0GA1UECAwGSGVzc2VuMRQwEgYDVQQKDAtwcml2YWN5aWRlYTEe
MBwGA1UEAwwVcmVxdWVzdGVyLmxvY2FsZG9tYWluMIIBIjANBgkqhkiG9w0BAQEF
AAOCAQ8AMIIBCgKCAQEAzb4UT/rOAT9CIhsdnK/dktJ/22y3PjlDQ2sTA/EF9Ad0
vHZpKAuvGY7X/OPNxljyyn8IbVP8BwJEJMa0NEyMBP4zDkDiILoCc1r39U9jbszG
tt9UHTc5fVE2Jl+93D+oi2uirrad1iHn30G4eigqaEjKqC3t4elGXlpybbSEOIeR
/ZQRCyiExsIvKvsB+TZ6CXXRM4g8c0FbyL+UiXCh8MC5LlBTHrEXZGn0LYHgqQ0O
Mum6VYqF8RtvSXm0f4jDDT5UiJs9HziMBPPuamMr9cbbtIOqxHhBOn1L4cg+ccob
YVnqxsTKMl7J6b8SKebGw2P+oFXaevFgmE0m7fpwLQIDAQABo4IBDjCCAQowCwYD
VR0PBAQDAgWgMAkGA1UdEwQCMAAwEQYJYIZIAYb4QgEBBAQDAgZAMDMGCWCGSAGG
+EIBDQQmFiRPcGVuU1NMIEdlbmVyYXRlZCBTZXJ2ZXIgQ2VydGlmaWNhdGUwHQYD
VR0OBBYEFFM/7V0JB7Nle6tFySRbCXeACpbtMHQGA1UdIwRtMGuAFPSnwMyRRq9k
85HyJ/jIsm+KhzJzoUikRjBEMQswCQYDVQQGEwJERTEPMA0GA1UECAwGSGVzc2Vu
MRQwEgYDVQQKDAtwcml2YWN5aWRlYTEOMAwGA1UEAwwFQ0EwMDGCCQD7yOusg80S
BzATBgNVHSUEDDAKBggrBgEFBQcDATANBgkqhkiG9w0BAQsFAAOCAQEAZRn4P0ox
aY9rRzO3pRb2FoUuhGwlsnWgUu5cyPOirMzIRapDT9CqnMSCrpNLtGTv0xbCEFY2
3va6LafRzK2+5L7fry7OaXu21QOBSHT36UP/1ckKatKFg+aCk2wi4Rg+kVDlm23s
pnTrv2OdsUubeYRne4h6ERuGtkpctxj8WMSNpf5ufmMSiRl0pUNBK64JwEm546NQ
S5sdiUA4K6ICQFm/IQELeq+Q95HLa+pko/zR9rtHqIIhrQ7UyZR6KMGaAUwPhFfN
I0JBRLkU3FOUUNQYVmxfAKtFAWRhjxXeJ4TuXYJcbYDZqtVzh3JoQTy4JiWzGGL/
LAU4FBPkUMJzBQ==
-----END CERTIFICATE-----
