Certificate:
    Data:
        Version: 3 (0x2)
        Serial Number: 268435675 (0x100000db)
    Signature Algorithm: sha256WithRSAEncryption
        Issuer: C=DE, ST=Hessen, O=privacyidea, CN=CA001
        Validity
            Not Before: May 23 14:21:59 2019 GMT
            Not After : May 22 14:21:59 2020 GMT
        Subject: CN=Steve Test/emailAddress=steve@openssl.org
        Subject Public Key Info:
            Public Key Algorithm: rsaEncryption
                Public-Key: (2048 bit)
                Modulus:
                    00:d2:81:89:20:51:48:0f:73:f4:11:32:24:d5:1f:
                    1c:fd:5c:f5:b6:e6:c5:f0:52:81:dc:d2:af:66:4a:
                    7c:93:31:61:5c:af:d1:6d:06:70:03:60:7c:72:0c:
                    88:dd:49:cd:9e:02:6c:d2:5a:d7:53:0f:f3:da:be:
                    69:64:b5:0f:0c:00:e3:b3:50:47:a3:b3:9b:ba:13:
                    50:d6:58:5a:4b:ab:39:e0:11:ca:0a:27:67:03:78:
                    22:66:6d:92:1e:1b:5c:49:ae:e6:6b:d1:8e:3b:9d:
                    06:d3:c6:ac:4d:53:43:10:ab:e8:96:c1:87:82:97:
                    99:8f:20:d3:99:12:37:31:84:e1:8a:ff:29:03:5f:
                    22:90:3e:7f:9b:e0:20:c1:ad:dc:ae:4c:39:1a:31:
                    96:17:02:8c:b2:d9:b4:0d:20:12:9b:7d:86:54:fd:
                    33:fd:c1:2a:62:46:f8:60:96:cf:6e:01:6f:22:df:
                    13:47:e7:97:ec:05:72:23:a3:62:f8:fa:ef:ac:9c:
                    72:f0:37:cb:2f:37:cf:90:a8:27:51:86:c6:d7:78:
                    08:8f:7e:25:a2:15:70:a2:fb:1c:b6:15:5e:a0:97:
                    8b:81:4c:09:28:8a:27:3b:94:bc:71:db:5b:71:37:
                    9a:2b:16:e0:6f:b5:c9:f5:4b:4f:20:ba:65:cf:af:
                    ad:ad
                Exponent: 65537 (0x10001)
        X509v3 extensions:
            X509v3 Key Usage: 
                Digital Signature, Key Encipherment
            X509v3 Basic Constraints: 
                CA:FALSE
            Netscape Cert Type: 
                SSL Server
            Netscape Comment: 
                OpenSSL Generated Server Certificate
            X509v3 Subject Key Identifier: 
                E5:25:6D:3E:AF:0D:DD:3F:4C:F2:45:19:39:D5:14:DB:7E:9C:C0:AD
            X509v3 Authority Key Identifier: 
                keyid:F4:A7:C0:CC:91:46:AF:64:F3:91:F2:27:F8:C8:B2:6F:8A:87:32:73
                DirName:/C=DE/ST=Hessen/O=privacyidea/CN=CA001
                serial:FB:C8:EB:AC:83:CD:12:07

            X509v3 Extended Key Usage: 
                TLS Web Server Authentication
    Signature Algorithm: sha256WithRSAEncryption
         21:5d:8c:02:2e:df:77:e3:0b:7b:1d:ed:f0:21:12:a4:04:41:
         f7:b9:c6:c6:2c:09:9a:aa:ff:25:55:94:e6:5d:e3:9a:91:88:
         f9:7e:c2:a4:a1:27:e5:d4:2d:e8:9d:43:64:1e:76:87:c9:32:
         39:51:94:b4:c8:0d:57:9a:86:48:82:d7:c3:7a:dd:88:d7:ac:
         d1:ed:0d:31:03:4c:d4:99:f8:44:6f:42:ac:37:a4:f7:fa:97:
         a3:51:49:e8:f9:22:0c:ec:9f:4b:6b:55:e5:d4:af:37:72:d2:
         99:e4:40:24:e2:ca:3b:62:9f:a4:02:c6:2d:e7:31:98:e4:d4:
         46:92:6c:c6:76:89:44:31:99:65:37:1b:76:2f:03:35:c7:43:
         79:48:e2:ba:0f:dd:19:b3:cf:0e:a4:f0:2a:8b:aa:54:8f:27:
         5e:4c:34:fb:34:ae:13:b3:80:3c:a7:fb:3c:ec:fd:4a:a8:2c:
         39:98:4a:1e:44:1d:76:aa:38:0f:d6:34:28:30:ac:17:21:b9:
         70:45:eb:c4:2e:cd:10:af:5d:87:1d:29:ba:7c:df:cd:2a:f4:
         dd:f3:28:1f:94:89:f4:d9:ba:bc:ac:ea:ec:e1:03:4b:6b:f7:
         41:74:d7:ed:dd:86:65:66:c5:96:94:f6:16:0a:ef:72:13:dd:
         0f:2c:1c:17
-----BEGIN CERTIFICATE-----
MIIECTCCAvGgAwIBAgIEEAAA2zANBgkqhkiG9w0BAQsFADBEMQswCQYDVQQGEwJE
RTEPMA0GA1UECAwGSGVzc2VuMRQwEgYDVQQKDAtwcml2YWN5aWRlYTEOMAwGA1UE
AwwFQ0EwMDEwHhcNMTkwNTIzMTQyMTU5WhcNMjAwNTIyMTQyMTU5WjA3MRMwEQYD
VQQDDApTdGV2ZSBUZXN0MSAwHgYJKoZIhvcNAQkBFhFzdGV2ZUBvcGVuc3NsLm9y
ZzCCASIwDQYJKoZIhvcNAQEBBQADggEPADCCAQoCggEBANKBiSBRSA9z9BEyJNUf
HP1c9bbmxfBSgdzSr2ZKfJMxYVyv0W0GcANgfHIMiN1JzZ4CbNJa11MP89q+aWS1
DwwA47NQR6Ozm7oTUNZYWkurOeARygonZwN4ImZtkh4bXEmu5mvRjjudBtPGrE1T
QxCr6JbBh4KXmY8g05kSNzGE4Yr/KQNfIpA+f5vgIMGt3K5MORoxlhcCjLLZtA0g
Ept9hlT9M/3BKmJG+GCWz24BbyLfE0fnl+wFciOjYvj676yccvA3yy83z5CoJ1GG
xtd4CI9+JaIVcKL7HLYVXqCXi4FMCSiKJzuUvHHbW3E3misW4G+1yfVLTyC6Zc+v
ra0CAwEAAaOCAQ4wggEKMAsGA1UdDwQEAwIFoDAJBgNVHRMEAjAAMBEGCWCGSAGG
+EIBAQQEAwIGQDAzBglghkgBhvhCAQ0EJhYkT3BlblNTTCBHZW5lcmF0ZWQgU2Vy
dmVyIENlcnRpZmljYXRlMB0GA1UdDgQWBBTlJW0+rw3dP0zyRRk51RTbfpzArTB0
BgNVHSMEbTBrgBT0p8DMkUavZPOR8if4yLJviocyc6FIpEYwRDELMAkGA1UEBhMC
REUxDzANBgNVBAgMBkhlc3NlbjEUMBIGA1UECgwLcHJpdmFjeWlkZWExDjAMBgNV
BAMMBUNBMDAxggkA+8jrrIPNEgcwEwYDVR0lBAwwCgYIKwYBBQUHAwEwDQYJKoZI
hvcNAQELBQADggEBACFdjAIu33fjC3sd7fAhEqQEQfe5xsYsCZqq/yVVlOZd45qR
iPl+wqShJ+XULeidQ2QedofJMjlRlLTIDVeahkiC18N63YjXrNHtDTEDTNSZ+ERv
Qqw3pPf6l6NRSej5Igzsn0trVeXUrzdy0pnkQCTiyjtin6QCxi3nMZjk1EaSbMZ2
iUQxmWU3G3YvAzXHQ3lI4roP3Rmzzw6k8CqLqlSPJ15MNPs0rhOzgDyn+zzs/Uqo
LDmYSh5EHXaqOA/WNCgwrBchuXBF68QuzRCvXYcdKbp8380q9N3zKB+UifTZurys
6uzhA0tr90F01+3dhmVmxZaU9hYK73IT3Q8sHBc=
-----END CERTIFICATE-----
