Certificate:
    Data:
        Version: 3 (0x2)
        Serial Number: 268435699 (0x100000f3)
    Signature Algorithm: sha256WithRSAEncryption
        Issuer: C=DE, ST=Hessen, O=privacyidea, CN=CA001
        Validity
            Not Before: Jan  9 20:09:23 2019 GMT
            Not After : Jan  9 20:09:23 2020 GMT
        Subject: OU=realm1, CN=cornelius/emailAddress=user@localhost.localdomain
        Subject Public Key Info:
            Public Key Algorithm: rsaEncryption
                Public-Key: (2048 bit)
                Modulus:
                    00:d6:f7:fd:05:58:87:46:91:76:7f:37:a9:b0:41:
                    1b:6c:61:35:32:f1:d7:0a:29:ec:02:8c:90:74:03:
                    56:26:02:b0:29:b0:ac:86:99:b5:3b:da:23:af:41:
                    6d:54:e7:76:cc:c5:a7:3a:02:7b:de:7e:50:90:12:
                    76:c3:24:2b:ea:bb:e8:89:9a:b2:3e:05:ca:55:61:
                    2e:e5:e3:f6:54:3d:01:0f:ad:18:79:1d:70:9a:a3:
                    1b:61:82:62:61:09:0d:2f:4a:b6:1b:97:7b:3a:be:
                    95:7c:74:e5:4b:de:1b:df:db:36:cf:0c:45:02:47:
                    18:47:cf:a6:15:32:40:2f:98:0d:5e:46:00:82:4c:
                    e3:04:79:6f:c9:ad:70:44:50:46:62:d7:65:e4:eb:
                    d6:68:b1:1f:5e:e3:8f:6f:1e:8b:bf:83:6b:3b:fe:
                    c2:6b:cb:7b:e5:55:8c:a2:07:ff:25:dc:9f:97:d1:
                    36:4b:23:9b:fe:f0:2f:21:7d:ae:9a:7b:f6:bb:d6:
                    66:b0:46:94:82:e5:8b:f5:ac:60:d0:05:47:cd:73:
                    30:88:17:5e:3b:a7:16:e5:b5:e5:5c:14:d2:a6:01:
                    f3:d5:88:a4:a5:a9:ed:83:b2:fe:d9:28:a0:e6:4e:
                    61:9d:0c:f8:97:b1:69:b6:73:2b:08:b8:80:1d:ce:
                    7d:89
                Exponent: 65537 (0x10001)
        X509v3 extensions:
            X509v3 Key Usage: 
                Digital Signature, Key Encipherment
            X509v3 Basic Constraints: 
                CA:FALSE
            Netscape Cert Type: 
                SSL Server
            Netscape Comment: 
                OpenSSL Generated Server Certificate
            X509v3 Subject Key Identifier: 
                1E:46:FC:CA:CD:08:5D:24:FF:60:67:18:8E:39:F3:20:54:63:6F:C3
            X509v3 Authority Key Identifier: 
                keyid:F4:A7:C0:CC:91:46:AF:64:F3:91:F2:27:F8:C8:B2:6F:8A:87:32:73
                DirName:/C=DE/ST=Hessen/O=privacyidea/CN=CA001
                serial:FB:C8:EB:AC:83:CD:12:07

            X509v3 Extended Key Usage: 
                TLS Web Server Authentication
    Signature Algorithm: sha256WithRSAEncryption
         0e:01:b4:95:7e:5c:10:63:1c:b5:79:3d:e7:3f:30:e0:67:5a:
         29:97:e4:46:a3:47:37:ad:9c:59:d5:b9:85:1c:2a:d3:cd:dc:
         95:9e:45:d6:24:34:94:10:ec:77:49:8d:b4:7d:5b:13:a0:eb:
         73:82:c1:37:59:04:6e:f6:d2:cb:e5:42:95:2b:a9:91:16:ef:
         4b:ab:84:0b:bb:4d:4d:6c:5e:fc:6a:f6:0c:63:9b:9b:f3:12:
         95:2c:ca:00:08:e5:1e:91:71:f0:71:e9:50:08:b8:57:10:ce:
         6a:cd:03:da:ac:fe:1c:e7:44:05:aa:b0:71:07:e1:a8:11:79:
         aa:d6:4e:f8:8d:26:9d:c7:d5:ef:6b:9a:50:f6:ce:b5:be:0c:
         68:89:a3:b1:42:6c:0e:8c:b5:d9:3b:87:32:a3:08:94:8c:59:
         72:bc:29:1c:34:5d:1e:12:bd:be:e2:65:c9:32:34:25:01:cc:
         48:aa:23:30:3b:79:ab:65:c3:63:94:2f:5c:d2:03:a7:ec:34:
         df:17:5b:b2:a9:7a:ea:30:a0:2c:08:87:a5:7a:d5:94:d3:be:
         2a:fe:99:61:e9:3b:10:26:49:25:c4:a7:9f:fc:1e:60:cb:ca:
         b1:c8:11:3d:a6:d4:b9:45:61:25:e4:aa:c9:e4:31:c4:31:6e:
         a6:5e:99:76
-----BEGIN CERTIFICATE-----
MIIEIjCCAwqgAwIBAgIEEAAA8zANBgkqhkiG9w0BAQsFADBEMQswCQYDVQQGEwJE
RTEPMA0GA1UECAwGSGVzc2VuMRQwEgYDVQQKDAtwcml2YWN5aWRlYTEOMAwGA1UE
AwwFQ0EwMDEwHhcNMTkwMTA5MjAwOTIzWhcNMjAwMTA5MjAwOTIzWjBQMQ8wDQYD
VQQLDAZyZWFsbTExEjAQBgNVBAMMCWNvcm5lbGl1czEpMCcGCSqGSIb3DQEJARYa
dXNlckBsb2NhbGhvc3QubG9jYWxkb21haW4wggEiMA0GCSqGSIb3DQEBAQUAA4IB
DwAwggEKAoIBAQDW9/0FWIdGkXZ/N6mwQRtsYTUy8dcKKewCjJB0A1YmArApsKyG
mbU72iOvQW1U53bMxac6AnveflCQEnbDJCvqu+iJmrI+BcpVYS7l4/ZUPQEPrRh5
HXCaoxthgmJhCQ0vSrYbl3s6vpV8dOVL3hvf2zbPDEUCRxhHz6YVMkAvmA1eRgCC
TOMEeW/JrXBEUEZi12Xk69ZosR9e449vHou/g2s7/sJry3vlVYyiB/8l3J+X0TZL
I5v+8C8hfa6ae/a71mawRpSC5Yv1rGDQBUfNczCIF147pxblteVcFNKmAfPViKSl
qe2Dsv7ZKKDmTmGdDPiXsWm2cysIuIAdzn2JAgMBAAGjggEOMIIBCjALBgNVHQ8E
BAMCBaAwCQYDVR0TBAIwADARBglghkgBhvhCAQEEBAMCBkAwMwYJYIZIAYb4QgEN
BCYWJE9wZW5TU0wgR2VuZXJhdGVkIFNlcnZlciBDZXJ0aWZpY2F0ZTAdBgNVHQ4E
FgQUHkb8ys0IXST/YGcYjjnzIFRjb8MwdAYDVR0jBG0wa4AU9KfAzJFGr2TzkfIn
+Miyb4qHMnOhSKRGMEQxCzAJBgNVBAYTAkRFMQ8wDQYDVQQIDAZIZXNzZW4xFDAS
BgNVBAoMC3ByaXZhY3lpZGVhMQ4wDAYDVQQDDAVDQTAwMYIJAPvI66yDzRIHMBMG
A1UdJQQMMAoGCCsGAQUFBwMBMA0GCSqGSIb3DQEBCwUAA4IBAQAOAbSVflwQYxy1
eT3nPzDgZ1opl+RGo0c3rZxZ1bmFHCrTzdyVnkXWJDSUEOx3SY20fVsToOtzgsE3
WQRu9tLL5UKVK6mRFu9Lq4QLu01NbF78avYMY5ub8xKVLMoACOUekXHwcelQCLhX
EM5qzQParP4c50QFqrBxB+GoEXmq1k74jSadx9Xva5pQ9s61vgxoiaOxQmwOjLXZ
O4cyowiUjFlyvCkcNF0eEr2+4mXJMjQlAcxIqiMwO3mrZcNjlC9c0gOn7DTfF1uy
qXrqMKAsCIeletWU074q/plh6TsQJkklxKef/B5gy8qxyBE9ptS5RWEl5KrJ5DHE
MW6mXpl2
-----END CERTIFICATE-----
