Certificate:
    Data:
        Version: 3 (0x2)
        Serial Number: 268435671 (0x100000d7)
    Signature Algorithm: sha256WithRSAEncryption
        Issuer: C=DE, ST=Hessen, O=privacyidea, CN=CA001
        Validity
            Not Before: Jun 14 15:36:17 2019 GMT
            Not After : Jun 13 15:36:17 2020 GMT
        Subject: CN=selfservice,CN=user,O=realm1/emailAddress=meine
        Subject Public Key Info:
            Public Key Algorithm: rsaEncryption
                Public-Key: (2048 bit)
                Modulus:
                    00:cf:3c:d4:33:0e:12:c4:e6:da:cd:b6:56:a1:1c:
                    26:bb:26:1c:8a:4a:73:a8:58:8a:b6:1e:b3:8b:99:
                    d2:1d:07:c2:92:89:79:c0:69:d8:c8:df:28:61:98:
                    1e:b3:fe:ae:2b:bd:78:a9:f7:6e:47:dc:a3:a0:16:
                    8c:85:02:c1:4e:92:fd:72:6e:f0:c8:03:29:9b:b8:
                    00:6e:c0:83:95:c8:34:20:36:9c:b3:e5:e4:e6:76:
                    73:a3:1a:ad:40:96:e0:53:54:00:ec:76:79:9a:c6:
                    0d:7e:b6:bd:29:ec:83:f3:cb:89:a4:cb:6c:00:ba:
                    0c:c5:78:0f:ff:69:b8:94:f4:04:70:43:3f:d8:9e:
                    d7:a7:fb:5d:ce:75:8e:da:e7:c4:07:b1:9d:de:6f:
                    88:4b:b6:4d:9a:cf:f9:bc:fa:9f:cd:32:6d:f6:3a:
                    0b:0d:23:42:78:ec:97:42:bf:0e:4d:60:56:e1:d3:
                    02:f2:19:cb:84:57:90:e5:70:a1:a2:83:35:86:e2:
                    da:86:9f:f9:8a:c4:79:b3:52:28:da:cb:bb:34:ca:
                    d3:da:91:4a:cf:8d:76:a2:b2:6b:9b:f9:96:fd:09:
                    2a:da:11:23:4d:f0:cb:d6:b2:b1:0e:12:6c:9a:19:
                    65:98:87:ca:e4:ee:24:ce:44:ac:90:8f:9d:1b:c5:
                    2a:9d
                Exponent: 65537 (0x10001)
        X509v3 extensions:
            X509v3 Key Usage: 
                Digital Signature, Key Encipherment
            X509v3 Basic Constraints: 
                CA:FALSE
            Netscape Cert Type: 
                SSL Server
            Netscape Comment: 
                OpenSSL Generated Server Certificate
            X509v3 Subject Key Identifier: 
                4D:07:90:AD:FF:1D:0D:E7:1A:DD:D6:2E:FA:BA:34:CB:AA:1F:24:C6
            X509v3 Authority Key Identifier: 
                keyid:F4:A7:C0:CC:91:46:AF:64:F3:91:F2:27:F8:C8:B2:6F:8A:87:32:73
                DirName:/C=DE/ST=Hessen/O=privacyidea/CN=CA001
                serial:FB:C8:EB:AC:83:CD:12:07

            X509v3 Extended Key Usage: 
                TLS Web Server Authentication
    Signature Algorithm: sha256WithRSAEncryption
         30:5a:b3:0e:93:24:af:5c:64:79:0d:44:1b:93:28:eb:55:e3:
         2d:1c:57:8f:2b:65:a4:d5:a9:29:e2:bc:d9:3f:d2:e7:e5:39:
         f4:0d:a3:e5:35:86:3c:8a:67:78:28:c9:e9:31:1e:a6:0f:c8:
         35:b1:04:0b:50:71:ce:b9:40:9c:16:ec:1a:e8:c6:6f:c2:7c:
         ae:ae:24:1f:6b:2a:c3:87:af:e7:e4:89:5c:ad:eb:fe:36:51:
         38:20:f6:a3:c8:6e:4a:a6:21:13:af:d1:14:53:93:db:1f:d0:
         1e:bd:71:37:cf:29:5e:dd:18:9d:09:cc:58:9e:51:92:fd:8e:
         f6:19:b4:08:d0:81:c9:5b:cf:76:a2:dd:4a:dc:6c:35:1a:a1:
         4d:21:3f:58:9d:3f:86:36:92:33:a9:c5:c8:a4:2e:d3:d4:04:
         ad:3e:df:04:3b:df:26:6e:13:4e:dd:1f:d4:24:07:9e:1f:65:
         28:ff:e4:52:86:72:0f:32:a5:47:ef:ad:a1:26:f5:f4:75:8f:
         0c:db:78:ec:93:0f:af:be:82:56:d0:1c:c3:5b:39:8a:b3:01:
         af:73:3d:85:d5:e5:38:7f:6a:1b:b7:c9:67:4b:ba:04:dd:70:
         c4:11:0a:94:4c:a6:7a:81:c4:53:c2:72:77:66:f0:06:0b:83:
         52:61:ba:e3
-----BEGIN CERTIFICATE-----
MIIEDzCCAvegAwIBAgIEEAAA1zANBgkqhkiG9w0BAQsFADBEMQswCQYDVQQGEwJE
RTEPMA0GA1UECAwGSGVzc2VuMRQwEgYDVQQKDAtwcml2YWN5aWRlYTEOMAwGA1UE
AwwFQ0EwMDEwHhcNMTkwNjE0MTUzNjE3WhcNMjAwNjEzMTUzNjE3WjA9MSUwIwYD
VQQDDBxzZWxmc2VydmljZSxDTj11c2VyLE89cmVhbG0xMRQwEgYJKoZIhvcNAQkB
FgVtZWluZTCCASIwDQYJKoZIhvcNAQEBBQADggEPADCCAQoCggEBAM881DMOEsTm
2s22VqEcJrsmHIpKc6hYirYes4uZ0h0HwpKJecBp2MjfKGGYHrP+riu9eKn3bkfc
o6AWjIUCwU6S/XJu8MgDKZu4AG7Ag5XINCA2nLPl5OZ2c6MarUCW4FNUAOx2eZrG
DX62vSnsg/PLiaTLbAC6DMV4D/9puJT0BHBDP9ie16f7Xc51jtrnxAexnd5viEu2
TZrP+bz6n80ybfY6Cw0jQnjsl0K/Dk1gVuHTAvIZy4RXkOVwoaKDNYbi2oaf+YrE
ebNSKNrLuzTK09qRSs+NdqKya5v5lv0JKtoRI03wy9aysQ4SbJoZZZiHyuTuJM5E
rJCPnRvFKp0CAwEAAaOCAQ4wggEKMAsGA1UdDwQEAwIFoDAJBgNVHRMEAjAAMBEG
CWCGSAGG+EIBAQQEAwIGQDAzBglghkgBhvhCAQ0EJhYkT3BlblNTTCBHZW5lcmF0
ZWQgU2VydmVyIENlcnRpZmljYXRlMB0GA1UdDgQWBBRNB5Ct/x0N5xrd1i76ujTL
qh8kxjB0BgNVHSMEbTBrgBT0p8DMkUavZPOR8if4yLJviocyc6FIpEYwRDELMAkG
A1UEBhMCREUxDzANBgNVBAgMBkhlc3NlbjEUMBIGA1UECgwLcHJpdmFjeWlkZWEx
DjAMBgNVBAMMBUNBMDAxggkA+8jrrIPNEgcwEwYDVR0lBAwwCgYIKwYBBQUHAwEw
DQYJKoZIhvcNAQELBQADggEBADBasw6TJK9cZHkNRBuTKOtV4y0cV48rZaTVqSni
vNk/0uflOfQNo+U1hjyKZ3goyekxHqYPyDWxBAtQcc65QJwW7Broxm/CfK6uJB9r
KsOHr+fkiVyt6/42UTgg9qPIbkqmIROv0RRTk9sf0B69cTfPKV7dGJ0JzFieUZL9
jvYZtAjQgclbz3ai3UrcbDUaoU0hP1idP4Y2kjOpxcikLtPUBK0+3wQ73yZuE07d
H9QkB54fZSj/5FKGcg8ypUfvraEm9fR1jwzbeOyTD6++glbQHMNbOYqzAa9zPYXV
5Th/ahu3yWdLugTdcMQRCpRMpnqBxFPCcndm8AYLg1JhuuM=
-----END CERTIFICATE-----
