Certificate:
    Data:
        Version: 3 (0x2)
        Serial Number: 268435700 (0x100000f4)
    Signature Algorithm: sha256WithRSAEncryption
        Issuer: C=DE, ST=Hessen, O=privacyidea, CN=CA001
        Validity
            Not Before: Jan  9 20:17:21 2019 GMT
            Not After : Jan  9 20:17:21 2020 GMT
        Subject: CN=selfservice,CN=user,O=realm1/emailAddress=meine
        Subject Public Key Info:
            Public Key Algorithm: rsaEncryption
                Public-Key: (2048 bit)
                Modulus:
                    00:cf:3c:d4:33:0e:12:c4:e6:da:cd:b6:56:a1:1c:
                    26:bb:26:1c:8a:4a:73:a8:58:8a:b6:1e:b3:8b:99:
                    d2:1d:07:c2:92:89:79:c0:69:d8:c8:df:28:61:98:
                    1e:b3:fe:ae:2b:bd:78:a9:f7:6e:47:dc:a3:a0:16:
                    8c:85:02:c1:4e:92:fd:72:6e:f0:c8:03:29:9b:b8:
                    00:6e:c0:83:95:c8:34:20:36:9c:b3:e5:e4:e6:76:
                    73:a3:1a:ad:40:96:e0:53:54:00:ec:76:79:9a:c6:
                    0d:7e:b6:bd:29:ec:83:f3:cb:89:a4:cb:6c:00:ba:
                    0c:c5:78:0f:ff:69:b8:94:f4:04:70:43:3f:d8:9e:
                    d7:a7:fb:5d:ce:75:8e:da:e7:c4:07:b1:9d:de:6f:
                    88:4b:b6:4d:9a:cf:f9:bc:fa:9f:cd:32:6d:f6:3a:
                    0b:0d:23:42:78:ec:97:42:bf:0e:4d:60:56:e1:d3:
                    02:f2:19:cb:84:57:90:e5:70:a1:a2:83:35:86:e2:
                    da:86:9f:f9:8a:c4:79:b3:52:28:da:cb:bb:34:ca:
                    d3:da:91:4a:cf:8d:76:a2:b2:6b:9b:f9:96:fd:09:
                    2a:da:11:23:4d:f0:cb:d6:b2:b1:0e:12:6c:9a:19:
                    65:98:87:ca:e4:ee:24:ce:44:ac:90:8f:9d:1b:c5:
                    2a:9d
                Exponent: 65537 (0x10001)
        X509v3 extensions:
            X509v3 Key Usage: 
                Digital Signature, Key Encipherment
            X509v3 Basic Constraints: 
                CA:FALSE
            Netscape Cert Type: 
                SSL Server
            Netscape Comment: 
                OpenSSL Generated Server Certificate
            X509v3 Subject Key Identifier: 
                4D:07:90:AD:FF:1D:0D:E7:1A:DD:D6:2E:FA:BA:34:CB:AA:1F:24:C6
            X509v3 Authority Key Identifier: 
                keyid:F4:A7:C0:CC:91:46:AF:64:F3:91:F2:27:F8:C8:B2:6F:8A:87:32:73
                DirName:/C=DE/ST=Hessen/O=privacyidea/CN=CA001
                serial:FB:C8:EB:AC:83:CD:12:07

            X509v3 Extended Key Usage: 
                TLS Web Server Authentication
    Signature Algorithm: sha256WithRSAEncryption
         7c:0f:fd:5d:6f:df:ed:c9:a4:1b:5b:4c:08:e5:7b:05:b8:46:
         ec:be:64:8b:a9:52:7b:b9:e4:2e:39:19:d5:cd:34:b8:52:f6:
         3a:59:3b:c6:0c:11:0e:8e:0f:21:f9:ac:99:aa:28:c0:72:85:
         ae:3d:ac:1a:a5:0e:19:a5:9d:c3:39:ea:4b:3f:e5:ad:b7:f0:
         4b:88:f1:ba:78:f3:a1:2c:29:ad:5d:9f:b6:c6:4e:56:23:71:
         fb:3c:58:7b:71:12:0a:e5:df:26:0a:55:60:3e:8e:0d:e0:87:
         c2:99:62:11:d1:01:81:1a:f5:b9:bd:7b:8b:96:d2:5a:24:63:
         e4:8b:e0:8c:a0:19:20:7d:6f:d4:6b:77:58:88:ea:fe:d8:2a:
         69:a0:13:0c:f5:d8:58:35:5d:dc:ef:5a:0e:4c:f0:5b:cb:8a:
         c7:55:4d:3d:7d:02:f1:19:40:0b:2b:76:33:a2:b2:8c:31:b1:
         77:e4:46:56:47:3f:3c:b1:00:78:c5:aa:ae:1c:d9:68:0a:5a:
         7d:6a:78:6f:1f:f8:9a:95:de:eb:9b:be:95:6d:8f:fa:f2:b9:
         d0:be:0e:c5:ea:4e:47:5b:8c:6c:72:83:97:fa:07:04:f4:08:
         c8:fe:ad:11:f8:cc:94:ad:aa:ae:34:38:79:2e:4d:a9:71:84:
         a1:d2:fe:60
-----BEGIN CERTIFICATE-----
MIIEDzCCAvegAwIBAgIEEAAA9DANBgkqhkiG9w0BAQsFADBEMQswCQYDVQQGEwJE
RTEPMA0GA1UECAwGSGVzc2VuMRQwEgYDVQQKDAtwcml2YWN5aWRlYTEOMAwGA1UE
AwwFQ0EwMDEwHhcNMTkwMTA5MjAxNzIxWhcNMjAwMTA5MjAxNzIxWjA9MSUwIwYD
VQQDDBxzZWxmc2VydmljZSxDTj11c2VyLE89cmVhbG0xMRQwEgYJKoZIhvcNAQkB
FgVtZWluZTCCASIwDQYJKoZIhvcNAQEBBQADggEPADCCAQoCggEBAM881DMOEsTm
2s22VqEcJrsmHIpKc6hYirYes4uZ0h0HwpKJecBp2MjfKGGYHrP+riu9eKn3bkfc
o6AWjIUCwU6S/XJu8MgDKZu4AG7Ag5XINCA2nLPl5OZ2c6MarUCW4FNUAOx2eZrG
DX62vSnsg/PLiaTLbAC6DMV4D/9puJT0BHBDP9ie16f7Xc51jtrnxAexnd5viEu2
TZrP+bz6n80ybfY6Cw0jQnjsl0K/Dk1gVuHTAvIZy4RXkOVwoaKDNYbi2oaf+YrE
ebNSKNrLuzTK09qRSs+NdqKya5v5lv0JKtoRI03wy9aysQ4SbJoZZZiHyuTuJM5E
rJCPnRvFKp0CAwEAAaOCAQ4wggEKMAsGA1UdDwQEAwIFoDAJBgNVHRMEAjAAMBEG
CWCGSAGG+EIBAQQEAwIGQDAzBglghkgBhvhCAQ0EJhYkT3BlblNTTCBHZW5lcmF0
ZWQgU2VydmVyIENlcnRpZmljYXRlMB0GA1UdDgQWBBRNB5Ct/x0N5xrd1i76ujTL
qh8kxjB0BgNVHSMEbTBrgBT0p8DMkUavZPOR8if4yLJviocyc6FIpEYwRDELMAkG
A1UEBhMCREUxDzANBgNVBAgMBkhlc3NlbjEUMBIGA1UECgwLcHJpdmFjeWlkZWEx
DjAMBgNVBAMMBUNBMDAxggkA+8jrrIPNEgcwEwYDVR0lBAwwCgYIKwYBBQUHAwEw
DQYJKoZIhvcNAQELBQADggEBAHwP/V1v3+3JpBtbTAjlewW4Ruy+ZIupUnu55C45
GdXNNLhS9jpZO8YMEQ6ODyH5rJmqKMByha49rBqlDhmlncM56ks/5a238EuI8bp4
86EsKa1dn7bGTlYjcfs8WHtxEgrl3yYKVWA+jg3gh8KZYhHRAYEa9bm9e4uW0lok
Y+SL4IygGSB9b9Rrd1iI6v7YKmmgEwz12Fg1XdzvWg5M8FvLisdVTT19AvEZQAsr
djOisowxsXfkRlZHPzyxAHjFqq4c2WgKWn1qeG8f+JqV3uubvpVtj/ryudC+DsXq
TkdbjGxyg5f6BwT0CMj+rRH4zJStqq40OHkuTalxhKHS/mA=
-----END CERTIFICATE-----
