Certificate:
    Data:
        Version: 3 (0x2)
        Serial Number: 268435667 (0x100000d3)
    Signature Algorithm: sha256WithRSAEncryption
        Issuer: C=DE, ST=Hessen, O=privacyidea, CN=CA001
        Validity
            Not Before: Jun 14 15:32:38 2019 GMT
            Not After : Jun 13 15:32:38 2020 GMT
        Subject: CN=Steve Test/emailAddress=steve@openssl.org
        Subject Public Key Info:
            Public Key Algorithm: rsaEncryption
                Public-Key: (2048 bit)
                Modulus:
                    00:d2:81:89:20:51:48:0f:73:f4:11:32:24:d5:1f:
                    1c:fd:5c:f5:b6:e6:c5:f0:52:81:dc:d2:af:66:4a:
                    7c:93:31:61:5c:af:d1:6d:06:70:03:60:7c:72:0c:
                    88:dd:49:cd:9e:02:6c:d2:5a:d7:53:0f:f3:da:be:
                    69:64:b5:0f:0c:00:e3:b3:50:47:a3:b3:9b:ba:13:
                    50:d6:58:5a:4b:ab:39:e0:11:ca:0a:27:67:03:78:
                    22:66:6d:92:1e:1b:5c:49:ae:e6:6b:d1:8e:3b:9d:
                    06:d3:c6:ac:4d:53:43:10:ab:e8:96:c1:87:82:97:
                    99:8f:20:d3:99:12:37:31:84:e1:8a:ff:29:03:5f:
                    22:90:3e:7f:9b:e0:20:c1:ad:dc:ae:4c:39:1a:31:
                    96:17:02:8c:b2:d9:b4:0d:20:12:9b:7d:86:54:fd:
                    33:fd:c1:2a:62:46:f8:60:96:cf:6e:01:6f:22:df:
                    13:47:e7:97:ec:05:72:23:a3:62:f8:fa:ef:ac:9c:
                    72:f0:37:cb:2f:37:cf:90:a8:27:51:86:c6:d7:78:
                    08:8f:7e:25:a2:15:70:a2:fb:1c:b6:15:5e:a0:97:
                    8b:81:4c:09:28:8a:27:3b:94:bc:71:db:5b:71:37:
                    9a:2b:16:e0:6f:b5:c9:f5:4b:4f:20:ba:65:cf:af:
                    ad:ad
                Exponent: 65537 (0x10001)
        X509v3 extensions:
            X509v3 Key Usage: 
                Digital Signature, Key Encipherment
            X509v3 Basic Constraints: 
                CA:FALSE
            Netscape Cert Type: 
                SSL Server
            Netscape Comment: 
                OpenSSL Generated Server Certificate
            X509v3 Subject Key Identifier: 
                E5:25:6D:3E:AF:0D:DD:3F:4C:F2:45:19:39:D5:14:DB:7E:9C:C0:AD
            X509v3 Authority Key Identifier: 
                keyid:F4:A7:C0:CC:91:46:AF:64:F3:91:F2:27:F8:C8:B2:6F:8A:87:32:73
                DirName:/C=DE/ST=Hessen/O=privacyidea/CN=CA001
                serial:FB:C8:EB:AC:83:CD:12:07

            X509v3 Extended Key Usage: 
                TLS Web Server Authentication
    Signature Algorithm: sha256WithRSAEncryption
         3d:c0:49:8d:99:b9:7d:ec:64:c0:c2:9d:1b:8a:41:5e:ec:45:
         93:13:c2:67:3a:75:f1:02:4d:f2:e0:69:3b:21:c4:d5:30:9b:
         77:45:77:fc:c8:69:70:62:1f:46:82:ac:7f:93:0b:94:3e:e4:
         03:5b:0a:38:ef:0e:ae:4a:6b:82:a3:e5:96:b7:46:99:c3:f3:
         e3:bd:14:7d:99:5a:1f:a4:ab:79:30:e9:1d:a4:be:68:8b:14:
         4e:62:59:2d:05:3a:5a:d5:6b:f9:8b:9d:23:d8:4a:2a:e6:59:
         d6:24:e1:71:e4:6e:09:a4:00:b8:96:c9:a9:6a:a9:25:5e:1e:
         92:76:9d:05:51:dd:d6:c7:5c:f4:c6:8c:95:5a:b9:b6:4e:e1:
         ff:6a:79:c5:21:66:fa:88:88:35:18:fb:b8:6d:22:83:be:3f:
         4e:ea:db:d8:a0:dc:9a:28:55:7c:73:ce:43:db:42:ab:ba:f4:
         0d:ab:e5:40:19:85:a0:e8:a9:ab:62:fe:9f:30:62:17:cd:1d:
         38:0a:ab:58:03:ea:e8:7a:de:42:58:dd:bf:ea:62:04:0c:1b:
         3c:17:08:bd:82:02:ca:45:53:89:f0:58:55:8d:fb:5b:6d:f5:
         e2:f3:cc:38:e5:e4:d2:a1:c5:7a:94:98:f5:3e:aa:4c:a3:3a:
         41:47:c7:b1
-----BEGIN CERTIFICATE-----
MIIECTCCAvGgAwIBAgIEEAAA0zANBgkqhkiG9w0BAQsFADBEMQswCQYDVQQGEwJE
RTEPMA0GA1UECAwGSGVzc2VuMRQwEgYDVQQKDAtwcml2YWN5aWRlYTEOMAwGA1UE
AwwFQ0EwMDEwHhcNMTkwNjE0MTUzMjM4WhcNMjAwNjEzMTUzMjM4WjA3MRMwEQYD
VQQDDApTdGV2ZSBUZXN0MSAwHgYJKoZIhvcNAQkBFhFzdGV2ZUBvcGVuc3NsLm9y
ZzCCASIwDQYJKoZIhvcNAQEBBQADggEPADCCAQoCggEBANKBiSBRSA9z9BEyJNUf
HP1c9bbmxfBSgdzSr2ZKfJMxYVyv0W0GcANgfHIMiN1JzZ4CbNJa11MP89q+aWS1
DwwA47NQR6Ozm7oTUNZYWkurOeARygonZwN4ImZtkh4bXEmu5mvRjjudBtPGrE1T
QxCr6JbBh4KXmY8g05kSNzGE4Yr/KQNfIpA+f5vgIMGt3K5MORoxlhcCjLLZtA0g
Ept9hlT9M/3BKmJG+GCWz24BbyLfE0fnl+wFciOjYvj676yccvA3yy83z5CoJ1GG
xtd4CI9+JaIVcKL7HLYVXqCXi4FMCSiKJzuUvHHbW3E3misW4G+1yfVLTyC6Zc+v
ra0CAwEAAaOCAQ4wggEKMAsGA1UdDwQEAwIFoDAJBgNVHRMEAjAAMBEGCWCGSAGG
+EIBAQQEAwIGQDAzBglghkgBhvhCAQ0EJhYkT3BlblNTTCBHZW5lcmF0ZWQgU2Vy
dmVyIENlcnRpZmljYXRlMB0GA1UdDgQWBBTlJW0+rw3dP0zyRRk51RTbfpzArTB0
BgNVHSMEbTBrgBT0p8DMkUavZPOR8if4yLJviocyc6FIpEYwRDELMAkGA1UEBhMC
REUxDzANBgNVBAgMBkhlc3NlbjEUMBIGA1UECgwLcHJpdmFjeWlkZWExDjAMBgNV
BAMMBUNBMDAxggkA+8jrrIPNEgcwEwYDVR0lBAwwCgYIKwYBBQUHAwEwDQYJKoZI
hvcNAQELBQADggEBAD3ASY2ZuX3sZMDCnRuKQV7sRZMTwmc6dfECTfLgaTshxNUw
m3dFd/zIaXBiH0aCrH+TC5Q+5ANbCjjvDq5Ka4Kj5Za3RpnD8+O9FH2ZWh+kq3kw
6R2kvmiLFE5iWS0FOlrVa/mLnSPYSirmWdYk4XHkbgmkALiWyalqqSVeHpJ2nQVR
3dbHXPTGjJVaubZO4f9qecUhZvqIiDUY+7htIoO+P07q29ig3JooVXxzzkPbQqu6
9A2r5UAZhaDoqati/p8wYhfNHTgKq1gD6uh63kJY3b/qYgQMGzwXCL2CAspFU4nw
WFWN+1tt9eLzzDjl5NKhxXqUmPU+qkyjOkFHx7E=
-----END CERTIFICATE-----
