Certificate:
    Data:
        Version: 3 (0x2)
        Serial Number: 268435679 (0x100000df)
    Signature Algorithm: sha256WithRSAEncryption
        Issuer: C=DE, ST=Hessen, O=privacyidea, CN=CA001
        Validity
            Not Before: May 23 14:25:35 2019 GMT
            Not After : May 22 14:25:35 2020 GMT
        Subject: CN=selfservice,CN=user,O=realm1/emailAddress=meine
        Subject Public Key Info:
            Public Key Algorithm: rsaEncryption
                Public-Key: (2048 bit)
                Modulus:
                    00:cf:3c:d4:33:0e:12:c4:e6:da:cd:b6:56:a1:1c:
                    26:bb:26:1c:8a:4a:73:a8:58:8a:b6:1e:b3:8b:99:
                    d2:1d:07:c2:92:89:79:c0:69:d8:c8:df:28:61:98:
                    1e:b3:fe:ae:2b:bd:78:a9:f7:6e:47:dc:a3:a0:16:
                    8c:85:02:c1:4e:92:fd:72:6e:f0:c8:03:29:9b:b8:
                    00:6e:c0:83:95:c8:34:20:36:9c:b3:e5:e4:e6:76:
                    73:a3:1a:ad:40:96:e0:53:54:00:ec:76:79:9a:c6:
                    0d:7e:b6:bd:29:ec:83:f3:cb:89:a4:cb:6c:00:ba:
                    0c:c5:78:0f:ff:69:b8:94:f4:04:70:43:3f:d8:9e:
                    d7:a7:fb:5d:ce:75:8e:da:e7:c4:07:b1:9d:de:6f:
                    88:4b:b6:4d:9a:cf:f9:bc:fa:9f:cd:32:6d:f6:3a:
                    0b:0d:23:42:78:ec:97:42:bf:0e:4d:60:56:e1:d3:
                    02:f2:19:cb:84:57:90:e5:70:a1:a2:83:35:86:e2:
                    da:86:9f:f9:8a:c4:79:b3:52:28:da:cb:bb:34:ca:
                    d3:da:91:4a:cf:8d:76:a2:b2:6b:9b:f9:96:fd:09:
                    2a:da:11:23:4d:f0:cb:d6:b2:b1:0e:12:6c:9a:19:
                    65:98:87:ca:e4:ee:24:ce:44:ac:90:8f:9d:1b:c5:
                    2a:9d
                Exponent: 65537 (0x10001)
        X509v3 extensions:
            X509v3 Key Usage: 
                Digital Signature, Key Encipherment
            X509v3 Basic Constraints: 
                CA:FALSE
            Netscape Cert Type: 
                SSL Server
            Netscape Comment: 
                OpenSSL Generated Server Certificate
            X509v3 Subject Key Identifier: 
                4D:07:90:AD:FF:1D:0D:E7:1A:DD:D6:2E:FA:BA:34:CB:AA:1F:24:C6
            X509v3 Authority Key Identifier: 
                keyid:F4:A7:C0:CC:91:46:AF:64:F3:91:F2:27:F8:C8:B2:6F:8A:87:32:73
                DirName:/C=DE/ST=Hessen/O=privacyidea/CN=CA001
                serial:FB:C8:EB:AC:83:CD:12:07

            X509v3 Extended Key Usage: 
                TLS Web Server Authentication
    Signature Algorithm: sha256WithRSAEncryption
         b9:a7:a5:2b:8c:c2:39:74:2e:a3:3c:68:2b:1b:53:7e:79:da:
         e5:89:1d:3e:d2:aa:84:b5:96:76:69:38:86:11:dd:f0:f2:50:
         1e:55:9c:af:31:46:01:e1:23:22:a5:28:01:5f:2a:e2:c9:3d:
         a5:be:77:ad:fd:84:c8:da:e3:f9:3e:53:0e:41:26:75:a1:12:
         fe:d9:d1:19:d6:8b:9b:1a:15:e5:5b:a4:2d:30:f9:ec:27:1b:
         b4:63:d4:39:c9:4c:d4:f1:da:6b:90:1b:2b:11:a8:43:a0:bf:
         0a:70:b7:89:ed:31:12:99:30:bd:a9:61:08:ec:3d:1a:fa:db:
         d5:5b:1a:78:2b:eb:18:76:a4:4e:63:e0:11:5b:19:44:3b:33:
         70:a5:c4:74:49:41:8a:03:12:6d:76:e7:c7:24:d7:37:d4:e2:
         b2:75:6b:a9:1b:b1:eb:74:60:65:0f:83:5c:dc:cd:26:33:f0:
         cf:ba:cc:49:ca:b2:78:37:f6:da:ce:d8:4f:cc:3a:c0:fb:99:
         02:d3:7d:ee:7a:32:4e:3d:85:d3:6a:76:72:da:d0:eb:90:6a:
         f1:9e:37:fc:dd:45:0b:a2:16:60:80:c0:b6:00:ec:3f:33:cf:
         08:1b:09:2e:eb:b6:4c:e3:37:4d:88:14:8e:86:0a:df:97:fc:
         59:e1:0e:e6
-----BEGIN CERTIFICATE-----
MIIEDzCCAvegAwIBAgIEEAAA3zANBgkqhkiG9w0BAQsFADBEMQswCQYDVQQGEwJE
RTEPMA0GA1UECAwGSGVzc2VuMRQwEgYDVQQKDAtwcml2YWN5aWRlYTEOMAwGA1UE
AwwFQ0EwMDEwHhcNMTkwNTIzMTQyNTM1WhcNMjAwNTIyMTQyNTM1WjA9MSUwIwYD
VQQDDBxzZWxmc2VydmljZSxDTj11c2VyLE89cmVhbG0xMRQwEgYJKoZIhvcNAQkB
FgVtZWluZTCCASIwDQYJKoZIhvcNAQEBBQADggEPADCCAQoCggEBAM881DMOEsTm
2s22VqEcJrsmHIpKc6hYirYes4uZ0h0HwpKJecBp2MjfKGGYHrP+riu9eKn3bkfc
o6AWjIUCwU6S/XJu8MgDKZu4AG7Ag5XINCA2nLPl5OZ2c6MarUCW4FNUAOx2eZrG
DX62vSnsg/PLiaTLbAC6DMV4D/9puJT0BHBDP9ie16f7Xc51jtrnxAexnd5viEu2
TZrP+bz6n80ybfY6Cw0jQnjsl0K/Dk1gVuHTAvIZy4RXkOVwoaKDNYbi2oaf+YrE
ebNSKNrLuzTK09qRSs+NdqKya5v5lv0JKtoRI03wy9aysQ4SbJoZZZiHyuTuJM5E
rJCPnRvFKp0CAwEAAaOCAQ4wggEKMAsGA1UdDwQEAwIFoDAJBgNVHRMEAjAAMBEG
CWCGSAGG+EIBAQQEAwIGQDAzBglghkgBhvhCAQ0EJhYkT3BlblNTTCBHZW5lcmF0
ZWQgU2VydmVyIENlcnRpZmljYXRlMB0GA1UdDgQWBBRNB5Ct/x0N5xrd1i76ujTL
qh8kxjB0BgNVHSMEbTBrgBT0p8DMkUavZPOR8if4yLJviocyc6FIpEYwRDELMAkG
A1UEBhMCREUxDzANBgNVBAgMBkhlc3NlbjEUMBIGA1UECgwLcHJpdmFjeWlkZWEx
DjAMBgNVBAMMBUNBMDAxggkA+8jrrIPNEgcwEwYDVR0lBAwwCgYIKwYBBQUHAwEw
DQYJKoZIhvcNAQELBQADggEBALmnpSuMwjl0LqM8aCsbU3552uWJHT7SqoS1lnZp
OIYR3fDyUB5VnK8xRgHhIyKlKAFfKuLJPaW+d639hMja4/k+Uw5BJnWhEv7Z0RnW
i5saFeVbpC0w+ewnG7Rj1DnJTNTx2muQGysRqEOgvwpwt4ntMRKZML2pYQjsPRr6
29VbGngr6xh2pE5j4BFbGUQ7M3ClxHRJQYoDEm1258ck1zfU4rJ1a6kbset0YGUP
g1zczSYz8M+6zEnKsng39trO2E/MOsD7mQLTfe56Mk49hdNqdnLa0OuQavGeN/zd
RQuiFmCAwLYA7D8zzwgbCS7rtkzjN02IFI6GCt+X/FnhDuY=
-----END CERTIFICATE-----
