Certificate:
    Data:
        Version: 3 (0x2)
        Serial Number: 268435705 (0x100000f9)
    Signature Algorithm: sha256WithRSAEncryption
        Issuer: C=DE, ST=Hessen, O=privacyidea, CN=CA001
        Validity
            Not Before: Jan  9 20:51:34 2019 GMT
            Not After : Jan 28 20:51:34 2021 GMT
        Subject: CN=Steve Test/emailAddress=steve@openssl.org
        Subject Public Key Info:
            Public Key Algorithm: rsaEncryption
                Public-Key: (2048 bit)
                Modulus:
                    00:d2:81:89:20:51:48:0f:73:f4:11:32:24:d5:1f:
                    1c:fd:5c:f5:b6:e6:c5:f0:52:81:dc:d2:af:66:4a:
                    7c:93:31:61:5c:af:d1:6d:06:70:03:60:7c:72:0c:
                    88:dd:49:cd:9e:02:6c:d2:5a:d7:53:0f:f3:da:be:
                    69:64:b5:0f:0c:00:e3:b3:50:47:a3:b3:9b:ba:13:
                    50:d6:58:5a:4b:ab:39:e0:11:ca:0a:27:67:03:78:
                    22:66:6d:92:1e:1b:5c:49:ae:e6:6b:d1:8e:3b:9d:
                    06:d3:c6:ac:4d:53:43:10:ab:e8:96:c1:87:82:97:
                    99:8f:20:d3:99:12:37:31:84:e1:8a:ff:29:03:5f:
                    22:90:3e:7f:9b:e0:20:c1:ad:dc:ae:4c:39:1a:31:
                    96:17:02:8c:b2:d9:b4:0d:20:12:9b:7d:86:54:fd:
                    33:fd:c1:2a:62:46:f8:60:96:cf:6e:01:6f:22:df:
                    13:47:e7:97:ec:05:72:23:a3:62:f8:fa:ef:ac:9c:
                    72:f0:37:cb:2f:37:cf:90:a8:27:51:86:c6:d7:78:
                    08:8f:7e:25:a2:15:70:a2:fb:1c:b6:15:5e:a0:97:
                    8b:81:4c:09:28:8a:27:3b:94:bc:71:db:5b:71:37:
                    9a:2b:16:e0:6f:b5:c9:f5:4b:4f:20:ba:65:cf:af:
                    ad:ad
                Exponent: 65537 (0x10001)
        X509v3 extensions:
            X509v3 Key Usage: 
                Digital Signature, Key Encipherment
            X509v3 Basic Constraints: 
                CA:FALSE
            Netscape Cert Type: 
                SSL Server
            Netscape Comment: 
                OpenSSL Generated Server Certificate
            X509v3 Subject Key Identifier: 
                E5:25:6D:3E:AF:0D:DD:3F:4C:F2:45:19:39:D5:14:DB:7E:9C:C0:AD
            X509v3 Authority Key Identifier: 
                keyid:F4:A7:C0:CC:91:46:AF:64:F3:91:F2:27:F8:C8:B2:6F:8A:87:32:73
                DirName:/C=DE/ST=Hessen/O=privacyidea/CN=CA001
                serial:FB:C8:EB:AC:83:CD:12:07

            X509v3 Extended Key Usage: 
                TLS Web Server Authentication
    Signature Algorithm: sha256WithRSAEncryption
         6e:3b:4c:6f:ba:34:50:d4:e5:ce:9b:cc:08:e9:3a:de:e1:c9:
         c8:b5:df:bf:81:62:39:fc:7f:bc:85:73:21:1c:b8:4f:a1:7c:
         2b:a8:e0:bf:93:44:01:ad:1b:02:7a:d0:2d:0f:6a:d7:9e:5a:
         69:4f:af:4d:e4:9e:b6:fe:ab:b7:9f:59:bf:da:e3:90:2d:c6:
         69:0e:5f:31:ff:53:ef:e1:2f:b6:74:a9:ae:01:8d:28:a7:09:
         0f:34:87:eb:57:1a:38:38:48:6b:10:bd:58:6b:30:da:b1:c9:
         7a:9c:41:15:3c:a1:ad:60:29:c3:4d:a9:7c:bf:1f:92:1a:c2:
         dd:de:25:87:76:23:9e:9e:28:fd:58:92:50:2a:f3:11:3b:77:
         91:9f:58:83:c8:5d:29:b4:82:36:e5:72:88:c6:0b:2f:27:2c:
         14:75:79:9a:4f:d2:3f:ce:9b:e4:72:b0:55:54:4a:fc:3b:f3:
         e8:08:c2:a9:4c:44:0a:37:25:6e:89:ac:fd:92:15:74:58:b1:
         a3:71:58:65:b8:bb:3e:7f:b7:20:9c:2a:1e:37:d8:34:25:8c:
         4c:9c:8a:d8:e4:04:27:55:c0:ff:fc:18:eb:3f:dd:02:29:05:
         81:74:d3:ca:9b:df:3e:0c:28:c7:1e:80:f9:55:05:a4:58:2c:
         78:c3:ad:00
-----BEGIN CERTIFICATE-----
MIIECTCCAvGgAwIBAgIEEAAA+TANBgkqhkiG9w0BAQsFADBEMQswCQYDVQQGEwJE
RTEPMA0GA1UECAwGSGVzc2VuMRQwEgYDVQQKDAtwcml2YWN5aWRlYTEOMAwGA1UE
AwwFQ0EwMDEwHhcNMTkwMTA5MjA1MTM0WhcNMjEwMTI4MjA1MTM0WjA3MRMwEQYD
VQQDDApTdGV2ZSBUZXN0MSAwHgYJKoZIhvcNAQkBFhFzdGV2ZUBvcGVuc3NsLm9y
ZzCCASIwDQYJKoZIhvcNAQEBBQADggEPADCCAQoCggEBANKBiSBRSA9z9BEyJNUf
HP1c9bbmxfBSgdzSr2ZKfJMxYVyv0W0GcANgfHIMiN1JzZ4CbNJa11MP89q+aWS1
DwwA47NQR6Ozm7oTUNZYWkurOeARygonZwN4ImZtkh4bXEmu5mvRjjudBtPGrE1T
QxCr6JbBh4KXmY8g05kSNzGE4Yr/KQNfIpA+f5vgIMGt3K5MORoxlhcCjLLZtA0g
Ept9hlT9M/3BKmJG+GCWz24BbyLfE0fnl+wFciOjYvj676yccvA3yy83z5CoJ1GG
xtd4CI9+JaIVcKL7HLYVXqCXi4FMCSiKJzuUvHHbW3E3misW4G+1yfVLTyC6Zc+v
ra0CAwEAAaOCAQ4wggEKMAsGA1UdDwQEAwIFoDAJBgNVHRMEAjAAMBEGCWCGSAGG
+EIBAQQEAwIGQDAzBglghkgBhvhCAQ0EJhYkT3BlblNTTCBHZW5lcmF0ZWQgU2Vy
dmVyIENlcnRpZmljYXRlMB0GA1UdDgQWBBTlJW0+rw3dP0zyRRk51RTbfpzArTB0
BgNVHSMEbTBrgBT0p8DMkUavZPOR8if4yLJviocyc6FIpEYwRDELMAkGA1UEBhMC
REUxDzANBgNVBAgMBkhlc3NlbjEUMBIGA1UECgwLcHJpdmFjeWlkZWExDjAMBgNV
BAMMBUNBMDAxggkA+8jrrIPNEgcwEwYDVR0lBAwwCgYIKwYBBQUHAwEwDQYJKoZI
hvcNAQELBQADggEBAG47TG+6NFDU5c6bzAjpOt7hyci137+BYjn8f7yFcyEcuE+h
fCuo4L+TRAGtGwJ60C0PateeWmlPr03knrb+q7efWb/a45AtxmkOXzH/U+/hL7Z0
qa4BjSinCQ80h+tXGjg4SGsQvVhrMNqxyXqcQRU8oa1gKcNNqXy/H5Iawt3eJYd2
I56eKP1YklAq8xE7d5GfWIPIXSm0gjblcojGCy8nLBR1eZpP0j/Om+RysFVUSvw7
8+gIwqlMRAo3JW6JrP2SFXRYsaNxWGW4uz5/tyCcKh432DQljEycitjkBCdVwP/8
GOs/3QIpBYF008qb3z4MKMcegPlVBaRYLHjDrQA=
-----END CERTIFICATE-----
