Certificate:
    Data:
        Version: 3 (0x2)
        Serial Number: 268435681 (0x100000e1)
    Signature Algorithm: sha256WithRSAEncryption
        Issuer: C=DE, ST=Hessen, O=privacyidea, CN=CA001
        Validity
            Not Before: Apr 16 08:32:27 2019 GMT
            Not After : Apr 15 08:32:27 2020 GMT
        Subject: C=DE, ST=Hessen, O=privacyidea, CN=usercert
        Subject Public Key Info:
            Public Key Algorithm: rsaEncryption
                Public-Key: (2048 bit)
                Modulus:
                    00:dc:2f:d1:5f:29:97:d4:7c:c3:53:c8:30:bd:4b:
                    67:70:2c:24:6b:b8:5e:eb:21:7a:48:12:56:7c:81:
                    5c:48:75:b6:68:eb:f6:f2:98:4e:50:51:d1:7f:6c:
                    73:f3:0a:a7:ae:be:48:5e:e5:d6:e1:d9:2a:7c:32:
                    6e:4e:fd:08:f6:5a:54:49:23:73:c3:b9:07:18:d1:
                    ef:b3:ac:f8:8a:dc:94:96:a4:90:3a:8e:74:df:e6:
                    0d:37:1b:bd:5b:b7:25:1a:56:39:da:6f:91:aa:5e:
                    1c:74:f3:f9:7c:14:01:83:12:65:76:c7:bb:fe:36:
                    5b:95:e9:72:65:83:ed:3e:98:30:71:fa:87:dd:a3:
                    36:5a:30:03:2e:26:e0:61:d1:bf:02:3f:b6:06:1f:
                    4a:89:28:1c:5c:a2:ff:4e:be:94:e6:8c:e0:da:82:
                    f1:9d:29:32:48:30:73:b4:04:f6:42:1e:be:f7:e2:
                    32:32:27:3c:9d:89:2f:70:3e:85:9a:6f:5c:c5:09:
                    c0:8c:32:2f:72:22:c9:d2:95:1f:b6:ac:72:60:72:
                    b7:82:4d:6b:ce:5b:e3:00:d0:d2:2f:58:c6:e0:10:
                    e5:51:ca:4d:3b:2e:e6:7e:ab:84:d6:56:f1:93:35:
                    a0:93:64:26:81:75:2f:91:b5:16:06:38:0b:db:cc:
                    2d:07
                Exponent: 65537 (0x10001)
        X509v3 extensions:
            X509v3 Key Usage: 
                Digital Signature, Key Encipherment
            X509v3 Basic Constraints: 
                CA:FALSE
            Netscape Cert Type: 
                SSL Server
            Netscape Comment: 
                OpenSSL Generated Server Certificate
            X509v3 Subject Key Identifier: 
                FC:14:D1:F0:4B:8D:00:90:F2:F5:B8:71:9E:4E:97:C3:92:54:AD:0B
            X509v3 Authority Key Identifier: 
                keyid:F4:A7:C0:CC:91:46:AF:64:F3:91:F2:27:F8:C8:B2:6F:8A:87:32:73
                DirName:/C=DE/ST=Hessen/O=privacyidea/CN=CA001
                serial:FB:C8:EB:AC:83:CD:12:07

            X509v3 Extended Key Usage: 
                TLS Web Server Authentication
    Signature Algorithm: sha256WithRSAEncryption
         31:fd:9b:4e:ca:b6:ce:9c:d4:9f:03:6a:d3:65:a3:03:88:dd:
         a0:7e:fc:cd:ae:ad:e8:15:0c:27:b9:20:5a:d0:a1:ff:4b:cc:
         c2:d1:ed:52:6e:7c:97:4e:ab:38:96:27:0d:1d:7e:d1:85:36:
         d7:07:fb:65:d0:9c:38:44:93:7a:0e:fa:dd:d7:6c:e5:f0:c0:
         fc:a4:b9:c4:19:a9:6e:ec:18:da:3d:b5:2b:64:ce:95:d3:10:
         a6:8a:89:25:c7:ae:00:b3:e9:de:b6:82:db:fb:c5:4e:57:fa:
         9d:80:b2:93:b8:df:bf:85:6b:2e:c9:fa:3f:0a:b8:8e:bb:02:
         51:c3:b2:99:1e:20:36:4b:f7:54:8d:36:ce:d2:87:e0:c2:df:
         f5:80:0a:fb:54:51:56:8d:ee:39:d3:48:7e:a1:da:a3:c2:33:
         94:b5:8c:ca:1f:70:dd:24:3d:35:de:71:cf:72:df:58:57:2a:
         ad:43:9a:a7:fb:16:56:89:c5:1c:72:d9:43:3e:54:c5:0a:33:
         3d:a7:b9:6d:40:53:da:d8:37:fc:ce:ec:25:43:5f:4b:1d:56:
         f4:07:b0:17:ed:87:6b:fb:01:34:d8:05:81:15:7c:9c:eb:e8:
         c1:ce:d2:b7:95:49:1e:e5:65:d1:d2:2c:2c:e6:c0:e4:f5:dc:
         08:c3:99:20
-----BEGIN CERTIFICATE-----
MIIEGTCCAwGgAwIBAgIEEAAA4TANBgkqhkiG9w0BAQsFADBEMQswCQYDVQQGEwJE
RTEPMA0GA1UECAwGSGVzc2VuMRQwEgYDVQQKDAtwcml2YWN5aWRlYTEOMAwGA1UE
AwwFQ0EwMDEwHhcNMTkwNDE2MDgzMjI3WhcNMjAwNDE1MDgzMjI3WjBHMQswCQYD
VQQGEwJERTEPMA0GA1UECAwGSGVzc2VuMRQwEgYDVQQKDAtwcml2YWN5aWRlYTER
MA8GA1UEAwwIdXNlcmNlcnQwggEiMA0GCSqGSIb3DQEBAQUAA4IBDwAwggEKAoIB
AQDcL9FfKZfUfMNTyDC9S2dwLCRruF7rIXpIElZ8gVxIdbZo6/bymE5QUdF/bHPz
Cqeuvkhe5dbh2Sp8Mm5O/Qj2WlRJI3PDuQcY0e+zrPiK3JSWpJA6jnTf5g03G71b
tyUaVjnab5GqXhx08/l8FAGDEmV2x7v+NluV6XJlg+0+mDBx+ofdozZaMAMuJuBh
0b8CP7YGH0qJKBxcov9OvpTmjODagvGdKTJIMHO0BPZCHr734jIyJzydiS9wPoWa
b1zFCcCMMi9yIsnSlR+2rHJgcreCTWvOW+MA0NIvWMbgEOVRyk07LuZ+q4TWVvGT
NaCTZCaBdS+RtRYGOAvbzC0HAgMBAAGjggEOMIIBCjALBgNVHQ8EBAMCBaAwCQYD
VR0TBAIwADARBglghkgBhvhCAQEEBAMCBkAwMwYJYIZIAYb4QgENBCYWJE9wZW5T
U0wgR2VuZXJhdGVkIFNlcnZlciBDZXJ0aWZpY2F0ZTAdBgNVHQ4EFgQU/BTR8EuN
AJDy9bhxnk6Xw5JUrQswdAYDVR0jBG0wa4AU9KfAzJFGr2TzkfIn+Miyb4qHMnOh
SKRGMEQxCzAJBgNVBAYTAkRFMQ8wDQYDVQQIDAZIZXNzZW4xFDASBgNVBAoMC3By
aXZhY3lpZGVhMQ4wDAYDVQQDDAVDQTAwMYIJAPvI66yDzRIHMBMGA1UdJQQMMAoG
CCsGAQUFBwMBMA0GCSqGSIb3DQEBCwUAA4IBAQAx/ZtOyrbOnNSfA2rTZaMDiN2g
fvzNrq3oFQwnuSBa0KH/S8zC0e1SbnyXTqs4licNHX7RhTbXB/tl0Jw4RJN6Dvrd
12zl8MD8pLnEGalu7BjaPbUrZM6V0xCmioklx64As+netoLb+8VOV/qdgLKTuN+/
hWsuyfo/CriOuwJRw7KZHiA2S/dUjTbO0ofgwt/1gAr7VFFWje4500h+odqjwjOU
tYzKH3DdJD013nHPct9YVyqtQ5qn+xZWicUcctlDPlTFCjM9p7ltQFPa2Df8zuwl
Q19LHVb0B7AX7Ydr+wE02AWBFXyc6+jBztK3lUke5WXR0iws5sDk9dwIw5kg
-----END CERTIFICATE-----
