Certificate:
    Data:
        Version: 3 (0x2)
        Serial Number: 268435685 (0x100000e5)
    Signature Algorithm: sha256WithRSAEncryption
        Issuer: C=DE, ST=Hessen, O=privacyidea, CN=CA001
        Validity
            Not Before: Apr 16 08:34:34 2019 GMT
            Not After : Apr 15 08:34:34 2020 GMT
        Subject: OU=realm1, CN=cornelius/emailAddress=user@localhost.localdomain
        Subject Public Key Info:
            Public Key Algorithm: rsaEncryption
                Public-Key: (2048 bit)
                Modulus:
                    00:d0:19:e2:8e:28:0c:2d:0b:ff:17:fe:4d:10:09:
                    9d:23:21:d1:c6:13:3b:1d:f1:12:f9:70:b3:0d:e2:
                    50:26:a0:b3:07:24:47:02:ce:f1:c3:01:14:e3:3b:
                    cd:3f:b1:22:db:80:f0:ab:2e:f5:0e:4e:23:53:79:
                    87:57:0f:0e:b1:87:fa:bf:f1:66:2d:c8:78:ea:ae:
                    c7:b7:32:ff:bc:db:ac:51:c4:10:b1:bc:65:e3:c2:
                    27:4b:27:a8:15:eb:40:cf:0b:b4:42:05:71:f4:7f:
                    be:65:34:fd:ac:61:88:8f:98:62:6d:14:69:82:0f:
                    94:ec:d1:f1:88:1c:02:51:7e:d2:5d:48:07:24:8d:
                    4b:29:c6:ef:4a:51:88:9c:ff:2a:5a:ba:14:83:76:
                    d0:bc:4e:8e:3d:46:55:09:a6:a2:86:79:c3:64:d9:
                    84:fa:f8:d0:56:51:78:ae:e3:48:70:9c:1b:ed:ff:
                    f8:42:d5:a7:23:3e:52:03:0a:3f:44:2a:bf:8b:5d:
                    10:8f:e7:0d:3e:6c:69:81:15:18:92:03:fa:a8:27:
                    dd:ac:a7:90:55:14:d6:2f:de:04:58:da:48:e3:03:
                    97:e6:e2:5e:35:ec:89:32:7d:97:de:6b:51:28:67:
                    db:e0:b2:62:88:d0:16:e5:00:ba:7b:55:65:05:d2:
                    b1:39
                Exponent: 65537 (0x10001)
        X509v3 extensions:
            X509v3 Key Usage: 
                Digital Signature, Key Encipherment
            X509v3 Basic Constraints: 
                CA:FALSE
            Netscape Cert Type: 
                SSL Server
            Netscape Comment: 
                OpenSSL Generated Server Certificate
            X509v3 Subject Key Identifier: 
                E5:84:8F:B7:CA:F0:B0:35:75:D2:91:ED:6B:2D:10:10:EC:D1:AB:AA
            X509v3 Authority Key Identifier: 
                keyid:F4:A7:C0:CC:91:46:AF:64:F3:91:F2:27:F8:C8:B2:6F:8A:87:32:73
                DirName:/C=DE/ST=Hessen/O=privacyidea/CN=CA001
                serial:FB:C8:EB:AC:83:CD:12:07

            X509v3 Extended Key Usage: 
                TLS Web Server Authentication
    Signature Algorithm: sha256WithRSAEncryption
         93:43:34:84:7d:08:57:c1:6a:8f:89:7e:55:c5:80:a4:cc:f2:
         4e:cf:1b:9b:3d:4b:50:df:93:a5:19:c9:fc:85:74:2f:4a:25:
         98:4a:13:6a:79:f7:b3:36:1a:59:22:95:46:ed:57:31:e7:84:
         4f:b6:b9:6a:7c:df:8a:e1:ac:70:0a:b5:45:a7:36:58:d8:91:
         59:eb:88:3f:e8:d5:4a:20:73:64:b5:68:a2:ed:7d:26:ae:54:
         59:36:99:15:5b:0c:c5:70:f7:09:40:b4:e5:32:f4:54:c3:d3:
         12:c9:62:45:d6:08:77:44:5f:93:03:8c:0e:f1:e1:2b:98:6f:
         bb:8b:ec:bd:84:66:8d:b7:dc:e4:49:d0:31:20:7b:8e:96:51:
         4f:f9:fa:59:90:79:c3:49:92:7e:ac:e4:fe:1f:4e:f1:e1:8c:
         46:48:2a:61:b8:4d:87:f0:43:3a:b6:1c:fd:c8:fb:90:c7:82:
         1c:c3:07:b2:b8:55:92:61:cd:95:ce:54:df:2b:2c:90:d7:b2:
         5f:22:3e:e8:99:26:ac:eb:32:a8:4b:99:05:78:e3:65:b9:f7:
         a2:27:7f:ba:0a:27:3b:a1:96:28:b6:b4:af:20:b6:b6:65:05:
         d9:98:d0:96:c2:f0:66:68:c5:9d:07:8f:44:fe:ac:ec:11:22:
         07:71:c9:5b
-----BEGIN CERTIFICATE-----
MIIEIjCCAwqgAwIBAgIEEAAA5TANBgkqhkiG9w0BAQsFADBEMQswCQYDVQQGEwJE
RTEPMA0GA1UECAwGSGVzc2VuMRQwEgYDVQQKDAtwcml2YWN5aWRlYTEOMAwGA1UE
AwwFQ0EwMDEwHhcNMTkwNDE2MDgzNDM0WhcNMjAwNDE1MDgzNDM0WjBQMQ8wDQYD
VQQLDAZyZWFsbTExEjAQBgNVBAMMCWNvcm5lbGl1czEpMCcGCSqGSIb3DQEJARYa
dXNlckBsb2NhbGhvc3QubG9jYWxkb21haW4wggEiMA0GCSqGSIb3DQEBAQUAA4IB
DwAwggEKAoIBAQDQGeKOKAwtC/8X/k0QCZ0jIdHGEzsd8RL5cLMN4lAmoLMHJEcC
zvHDARTjO80/sSLbgPCrLvUOTiNTeYdXDw6xh/q/8WYtyHjqrse3Mv+826xRxBCx
vGXjwidLJ6gV60DPC7RCBXH0f75lNP2sYYiPmGJtFGmCD5Ts0fGIHAJRftJdSAck
jUspxu9KUYic/ypauhSDdtC8To49RlUJpqKGecNk2YT6+NBWUXiu40hwnBvt//hC
1acjPlIDCj9EKr+LXRCP5w0+bGmBFRiSA/qoJ92sp5BVFNYv3gRY2kjjA5fm4l41
7IkyfZfea1EoZ9vgsmKI0BblALp7VWUF0rE5AgMBAAGjggEOMIIBCjALBgNVHQ8E
BAMCBaAwCQYDVR0TBAIwADARBglghkgBhvhCAQEEBAMCBkAwMwYJYIZIAYb4QgEN
BCYWJE9wZW5TU0wgR2VuZXJhdGVkIFNlcnZlciBDZXJ0aWZpY2F0ZTAdBgNVHQ4E
FgQU5YSPt8rwsDV10pHtay0QEOzRq6owdAYDVR0jBG0wa4AU9KfAzJFGr2TzkfIn
+Miyb4qHMnOhSKRGMEQxCzAJBgNVBAYTAkRFMQ8wDQYDVQQIDAZIZXNzZW4xFDAS
BgNVBAoMC3ByaXZhY3lpZGVhMQ4wDAYDVQQDDAVDQTAwMYIJAPvI66yDzRIHMBMG
A1UdJQQMMAoGCCsGAQUFBwMBMA0GCSqGSIb3DQEBCwUAA4IBAQCTQzSEfQhXwWqP
iX5VxYCkzPJOzxubPUtQ35OlGcn8hXQvSiWYShNqefezNhpZIpVG7Vcx54RPtrlq
fN+K4axwCrVFpzZY2JFZ64g/6NVKIHNktWii7X0mrlRZNpkVWwzFcPcJQLTlMvRU
w9MSyWJF1gh3RF+TA4wO8eErmG+7i+y9hGaNt9zkSdAxIHuOllFP+fpZkHnDSZJ+
rOT+H07x4YxGSCphuE2H8EM6thz9yPuQx4IcwweyuFWSYc2VzlTfKyyQ17JfIj7o
mSas6zKoS5kFeONlufeiJ3+6Cic7oZYotrSvILa2ZQXZmNCWwvBmaMWdB49E/qzs
ESIHcclb
-----END CERTIFICATE-----
