Certificate:
    Data:
        Version: 3 (0x2)
        Serial Number: 268435670 (0x100000d6)
    Signature Algorithm: sha256WithRSAEncryption
        Issuer: C=DE, ST=Hessen, O=privacyidea, CN=CA001
        Validity
            Not Before: Jun 14 15:34:48 2019 GMT
            Not After : Jun 13 15:34:48 2020 GMT
        Subject: OU=realm1, CN=cornelius/emailAddress=user@localhost.localdomain
        Subject Public Key Info:
            Public Key Algorithm: rsaEncryption
                Public-Key: (2048 bit)
                Modulus:
                    00:a0:08:6f:0f:3e:bd:64:3b:cd:4a:f5:54:eb:21:
                    83:af:dc:19:eb:6f:27:1d:43:b9:d5:e0:27:cb:43:
                    25:ac:0e:6d:a9:6f:b1:63:b2:f6:16:88:71:a8:5a:
                    d3:07:c9:2a:09:8e:b6:15:14:fb:e1:79:16:04:59:
                    2c:90:a0:ff:8c:8f:fd:b5:90:f9:3c:45:18:08:a2:
                    f9:0a:69:a7:f8:7e:b1:46:2c:4c:8e:23:99:e3:69:
                    a3:8b:0e:65:83:52:be:27:d9:56:27:fb:da:df:03:
                    2a:e0:a7:a0:29:9a:c2:3c:16:73:34:73:7d:2a:57:
                    9d:8e:6c:e1:b6:c8:a0:00:01:82:f6:e8:dc:7c:6a:
                    da:94:d3:60:68:36:c4:44:ca:49:43:5a:72:3f:2a:
                    c4:86:05:d7:39:da:c5:b0:09:fb:df:4f:a8:32:2a:
                    01:eb:25:a7:bd:80:3e:d5:b9:1f:dd:16:3c:7f:e5:
                    63:55:44:28:23:da:e4:4d:0f:c4:1d:21:5e:27:25:
                    eb:e3:63:05:e0:f4:86:ac:68:18:a1:84:b8:b0:40:
                    d0:11:c3:1b:80:48:15:03:29:d3:9a:48:97:b0:77:
                    66:57:29:e9:42:23:2e:11:8d:3d:9a:0e:7c:43:ab:
                    6e:a1:70:1e:39:f9:48:ff:d1:23:68:c8:39:1f:e9:
                    dd:99
                Exponent: 65537 (0x10001)
        X509v3 extensions:
            X509v3 Key Usage: 
                Digital Signature, Key Encipherment
            X509v3 Basic Constraints: 
                CA:FALSE
            Netscape Cert Type: 
                SSL Server
            Netscape Comment: 
                OpenSSL Generated Server Certificate
            X509v3 Subject Key Identifier: 
                48:6A:7F:7D:B7:6D:30:B1:0B:EE:0F:C3:B9:33:B8:D7:EA:FE:74:D6
            X509v3 Authority Key Identifier: 
                keyid:F4:A7:C0:CC:91:46:AF:64:F3:91:F2:27:F8:C8:B2:6F:8A:87:32:73
                DirName:/C=DE/ST=Hessen/O=privacyidea/CN=CA001
                serial:FB:C8:EB:AC:83:CD:12:07

            X509v3 Extended Key Usage: 
                TLS Web Server Authentication
    Signature Algorithm: sha256WithRSAEncryption
         5f:63:86:60:ad:ee:c0:48:0a:4a:f6:38:3f:ad:7b:68:ac:e0:
         bd:48:84:b8:0e:18:2c:28:e7:d7:96:02:11:6d:c5:09:b4:6b:
         a9:5e:5c:0a:2f:38:7d:f0:b5:ba:e7:84:55:a4:8d:1c:74:be:
         c2:b3:e5:b9:ce:77:7a:36:7e:5c:6c:4b:1f:c8:3f:5c:81:1d:
         be:9f:b3:e4:e9:a3:55:04:b1:c8:ae:ca:93:4c:7e:e0:04:23:
         e1:2d:8e:ff:a3:b5:26:c1:13:59:94:76:c4:0c:1e:ff:47:1b:
         e0:f6:23:4c:00:21:5d:cd:3d:cb:ec:6a:e8:26:06:d9:6f:01:
         ff:35:f1:bf:a7:01:fc:3f:5a:1e:b5:8f:83:81:cd:1c:e0:74:
         9d:8d:7e:fe:05:aa:4d:c4:cb:73:dc:98:3a:fe:07:cc:41:62:
         7f:bf:97:93:79:d9:15:41:86:f5:09:91:e9:20:ed:5b:71:cc:
         0f:cd:c0:bd:7e:36:2c:86:10:11:b8:98:48:43:fc:cd:8c:f1:
         86:ec:6b:a2:9a:3b:5a:7c:03:76:98:82:dd:4a:14:45:80:b3:
         ba:ff:d9:cf:7f:ae:81:94:e3:e9:2e:e9:a9:cf:36:2f:f3:1c:
         ac:74:a9:f3:1d:7e:66:a3:e7:f2:2b:30:d5:cd:78:f1:51:2f:
         60:7d:b8:09
-----BEGIN CERTIFICATE-----
MIIEIjCCAwqgAwIBAgIEEAAA1jANBgkqhkiG9w0BAQsFADBEMQswCQYDVQQGEwJE
RTEPMA0GA1UECAwGSGVzc2VuMRQwEgYDVQQKDAtwcml2YWN5aWRlYTEOMAwGA1UE
AwwFQ0EwMDEwHhcNMTkwNjE0MTUzNDQ4WhcNMjAwNjEzMTUzNDQ4WjBQMQ8wDQYD
VQQLDAZyZWFsbTExEjAQBgNVBAMMCWNvcm5lbGl1czEpMCcGCSqGSIb3DQEJARYa
dXNlckBsb2NhbGhvc3QubG9jYWxkb21haW4wggEiMA0GCSqGSIb3DQEBAQUAA4IB
DwAwggEKAoIBAQCgCG8PPr1kO81K9VTrIYOv3BnrbycdQ7nV4CfLQyWsDm2pb7Fj
svYWiHGoWtMHySoJjrYVFPvheRYEWSyQoP+Mj/21kPk8RRgIovkKaaf4frFGLEyO
I5njaaOLDmWDUr4n2VYn+9rfAyrgp6ApmsI8FnM0c30qV52ObOG2yKAAAYL26Nx8
atqU02BoNsREyklDWnI/KsSGBdc52sWwCfvfT6gyKgHrJae9gD7VuR/dFjx/5WNV
RCgj2uRND8QdIV4nJevjYwXg9IasaBihhLiwQNARwxuASBUDKdOaSJewd2ZXKelC
Iy4RjT2aDnxDq26hcB45+Uj/0SNoyDkf6d2ZAgMBAAGjggEOMIIBCjALBgNVHQ8E
BAMCBaAwCQYDVR0TBAIwADARBglghkgBhvhCAQEEBAMCBkAwMwYJYIZIAYb4QgEN
BCYWJE9wZW5TU0wgR2VuZXJhdGVkIFNlcnZlciBDZXJ0aWZpY2F0ZTAdBgNVHQ4E
FgQUSGp/fbdtMLEL7g/DuTO41+r+dNYwdAYDVR0jBG0wa4AU9KfAzJFGr2TzkfIn
+Miyb4qHMnOhSKRGMEQxCzAJBgNVBAYTAkRFMQ8wDQYDVQQIDAZIZXNzZW4xFDAS
BgNVBAoMC3ByaXZhY3lpZGVhMQ4wDAYDVQQDDAVDQTAwMYIJAPvI66yDzRIHMBMG
A1UdJQQMMAoGCCsGAQUFBwMBMA0GCSqGSIb3DQEBCwUAA4IBAQBfY4Zgre7ASApK
9jg/rXtorOC9SIS4DhgsKOfXlgIRbcUJtGupXlwKLzh98LW654RVpI0cdL7Cs+W5
znd6Nn5cbEsfyD9cgR2+n7Pk6aNVBLHIrsqTTH7gBCPhLY7/o7UmwRNZlHbEDB7/
Rxvg9iNMACFdzT3L7GroJgbZbwH/NfG/pwH8P1oetY+Dgc0c4HSdjX7+BapNxMtz
3Jg6/gfMQWJ/v5eTedkVQYb1CZHpIO1bccwPzcC9fjYshhARuJhIQ/zNjPGG7Gui
mjtafAN2mILdShRFgLO6/9nPf66BlOPpLumpzzYv8xysdKnzHX5mo+fyKzDVzXjx
US9gfbgJ
-----END CERTIFICATE-----
