Certificate:
    Data:
        Version: 3 (0x2)
        Serial Number: 268435696 (0x100000f0)
    Signature Algorithm: sha256WithRSAEncryption
        Issuer: C=DE, ST=Hessen, O=privacyidea, CN=CA001
        Validity
            Not Before: Jan  9 20:05:02 2019 GMT
            Not After : Jan  9 20:05:02 2020 GMT
        Subject: CN=Steve Test/emailAddress=steve@openssl.org
        Subject Public Key Info:
            Public Key Algorithm: rsaEncryption
                Public-Key: (2048 bit)
                Modulus:
                    00:d2:81:89:20:51:48:0f:73:f4:11:32:24:d5:1f:
                    1c:fd:5c:f5:b6:e6:c5:f0:52:81:dc:d2:af:66:4a:
                    7c:93:31:61:5c:af:d1:6d:06:70:03:60:7c:72:0c:
                    88:dd:49:cd:9e:02:6c:d2:5a:d7:53:0f:f3:da:be:
                    69:64:b5:0f:0c:00:e3:b3:50:47:a3:b3:9b:ba:13:
                    50:d6:58:5a:4b:ab:39:e0:11:ca:0a:27:67:03:78:
                    22:66:6d:92:1e:1b:5c:49:ae:e6:6b:d1:8e:3b:9d:
                    06:d3:c6:ac:4d:53:43:10:ab:e8:96:c1:87:82:97:
                    99:8f:20:d3:99:12:37:31:84:e1:8a:ff:29:03:5f:
                    22:90:3e:7f:9b:e0:20:c1:ad:dc:ae:4c:39:1a:31:
                    96:17:02:8c:b2:d9:b4:0d:20:12:9b:7d:86:54:fd:
                    33:fd:c1:2a:62:46:f8:60:96:cf:6e:01:6f:22:df:
                    13:47:e7:97:ec:05:72:23:a3:62:f8:fa:ef:ac:9c:
                    72:f0:37:cb:2f:37:cf:90:a8:27:51:86:c6:d7:78:
                    08:8f:7e:25:a2:15:70:a2:fb:1c:b6:15:5e:a0:97:
                    8b:81:4c:09:28:8a:27:3b:94:bc:71:db:5b:71:37:
                    9a:2b:16:e0:6f:b5:c9:f5:4b:4f:20:ba:65:cf:af:
                    ad:ad
                Exponent: 65537 (0x10001)
        X509v3 extensions:
            X509v3 Key Usage: 
                Digital Signature, Key Encipherment
            X509v3 Basic Constraints: 
                CA:FALSE
            Netscape Cert Type: 
                SSL Server
            Netscape Comment: 
                OpenSSL Generated Server Certificate
            X509v3 Subject Key Identifier: 
                E5:25:6D:3E:AF:0D:DD:3F:4C:F2:45:19:39:D5:14:DB:7E:9C:C0:AD
            X509v3 Authority Key Identifier: 
                keyid:F4:A7:C0:CC:91:46:AF:64:F3:91:F2:27:F8:C8:B2:6F:8A:87:32:73
                DirName:/C=DE/ST=Hessen/O=privacyidea/CN=CA001
                serial:FB:C8:EB:AC:83:CD:12:07

            X509v3 Extended Key Usage: 
                TLS Web Server Authentication
    Signature Algorithm: sha256WithRSAEncryption
         bb:c9:e8:68:a7:aa:67:9d:bf:a4:c8:70:32:0d:44:d2:b9:9b:
         ae:e7:ab:7e:15:4d:c9:e2:45:1e:a4:4a:57:5c:6b:01:98:06:
         b7:ff:df:48:a9:22:e0:00:86:c5:b9:08:b2:39:bc:33:8f:9c:
         61:14:00:12:e5:2d:96:c7:56:43:e6:2c:e7:4c:78:b9:66:cf:
         a3:18:7d:9c:ee:5a:c8:ed:02:86:54:67:9c:da:31:54:b7:05:
         7e:5a:5f:7d:3f:94:39:6d:8b:66:89:41:75:52:db:b5:f5:62:
         d9:74:c6:f3:f2:85:de:a8:7f:08:0b:32:9c:60:6b:13:fa:c9:
         2e:98:88:83:4b:c5:ec:44:0d:de:f6:96:25:a8:32:45:7e:9b:
         ef:01:b2:94:c8:48:c0:c4:57:31:b0:bf:47:58:9d:ee:31:2e:
         64:23:0a:b4:64:1b:bb:d4:3b:d8:a8:6b:4f:58:47:71:26:43:
         9d:75:a6:0f:2b:7b:ff:43:8b:01:83:5e:3e:c7:87:18:11:66:
         59:a4:28:e9:0d:82:e6:05:d4:98:65:84:99:e7:61:13:52:c2:
         0a:3e:e2:83:cd:34:a8:ea:c2:19:60:a1:b7:28:7b:36:3a:9f:
         f9:6a:d7:6b:d5:db:50:af:b4:44:b1:90:a1:28:36:b2:2b:d1:
         a5:82:c6:6b
-----BEGIN CERTIFICATE-----
MIIECTCCAvGgAwIBAgIEEAAA8DANBgkqhkiG9w0BAQsFADBEMQswCQYDVQQGEwJE
RTEPMA0GA1UECAwGSGVzc2VuMRQwEgYDVQQKDAtwcml2YWN5aWRlYTEOMAwGA1UE
AwwFQ0EwMDEwHhcNMTkwMTA5MjAwNTAyWhcNMjAwMTA5MjAwNTAyWjA3MRMwEQYD
VQQDDApTdGV2ZSBUZXN0MSAwHgYJKoZIhvcNAQkBFhFzdGV2ZUBvcGVuc3NsLm9y
ZzCCASIwDQYJKoZIhvcNAQEBBQADggEPADCCAQoCggEBANKBiSBRSA9z9BEyJNUf
HP1c9bbmxfBSgdzSr2ZKfJMxYVyv0W0GcANgfHIMiN1JzZ4CbNJa11MP89q+aWS1
DwwA47NQR6Ozm7oTUNZYWkurOeARygonZwN4ImZtkh4bXEmu5mvRjjudBtPGrE1T
QxCr6JbBh4KXmY8g05kSNzGE4Yr/KQNfIpA+f5vgIMGt3K5MORoxlhcCjLLZtA0g
Ept9hlT9M/3BKmJG+GCWz24BbyLfE0fnl+wFciOjYvj676yccvA3yy83z5CoJ1GG
xtd4CI9+JaIVcKL7HLYVXqCXi4FMCSiKJzuUvHHbW3E3misW4G+1yfVLTyC6Zc+v
ra0CAwEAAaOCAQ4wggEKMAsGA1UdDwQEAwIFoDAJBgNVHRMEAjAAMBEGCWCGSAGG
+EIBAQQEAwIGQDAzBglghkgBhvhCAQ0EJhYkT3BlblNTTCBHZW5lcmF0ZWQgU2Vy
dmVyIENlcnRpZmljYXRlMB0GA1UdDgQWBBTlJW0+rw3dP0zyRRk51RTbfpzArTB0
BgNVHSMEbTBrgBT0p8DMkUavZPOR8if4yLJviocyc6FIpEYwRDELMAkGA1UEBhMC
REUxDzANBgNVBAgMBkhlc3NlbjEUMBIGA1UECgwLcHJpdmFjeWlkZWExDjAMBgNV
BAMMBUNBMDAxggkA+8jrrIPNEgcwEwYDVR0lBAwwCgYIKwYBBQUHAwEwDQYJKoZI
hvcNAQELBQADggEBALvJ6Ginqmedv6TIcDINRNK5m67nq34VTcniRR6kSldcawGY
Brf/30ipIuAAhsW5CLI5vDOPnGEUABLlLZbHVkPmLOdMeLlmz6MYfZzuWsjtAoZU
Z5zaMVS3BX5aX30/lDlti2aJQXVS27X1Ytl0xvPyhd6ofwgLMpxgaxP6yS6YiINL
xexEDd72liWoMkV+m+8BspTISMDEVzGwv0dYne4xLmQjCrRkG7vUO9ioa09YR3Em
Q511pg8re/9DiwGDXj7HhxgRZlmkKOkNguYF1JhlhJnnYRNSwgo+4oPNNKjqwhlg
obcoezY6n/lq12vV21CvtESxkKEoNrIr0aWCxms=
-----END CERTIFICATE-----
