Certificate:
    Data:
        Version: 3 (0x2)
        Serial Number: 268435684 (0x100000e4)
    Signature Algorithm: sha256WithRSAEncryption
        Issuer: C=DE, ST=Hessen, O=privacyidea, CN=CA001
        Validity
            Not Before: Apr 16 08:34:34 2019 GMT
            Not After : Apr 15 08:34:34 2020 GMT
        Subject: C=DE, ST=Hessen, O=privacyidea, CN=requester.localdomain
        Subject Public Key Info:
            Public Key Algorithm: rsaEncryption
                Public-Key: (2048 bit)
                Modulus:
                    00:cd:be:14:4f:fa:ce:01:3f:42:22:1b:1d:9c:af:
                    dd:92:d2:7f:db:6c:b7:3e:39:43:43:6b:13:03:f1:
                    05:f4:07:74:bc:76:69:28:0b:af:19:8e:d7:fc:e3:
                    cd:c6:58:f2:ca:7f:08:6d:53:fc:07:02:44:24:c6:
                    b4:34:4c:8c:04:fe:33:0e:40:e2:20:ba:02:73:5a:
                    f7:f5:4f:63:6e:cc:c6:b6:df:54:1d:37:39:7d:51:
                    36:26:5f:bd:dc:3f:a8:8b:6b:a2:ae:b6:9d:d6:21:
                    e7:df:41:b8:7a:28:2a:68:48:ca:a8:2d:ed:e1:e9:
                    46:5e:5a:72:6d:b4:84:38:87:91:fd:94:11:0b:28:
                    84:c6:c2:2f:2a:fb:01:f9:36:7a:09:75:d1:33:88:
                    3c:73:41:5b:c8:bf:94:89:70:a1:f0:c0:b9:2e:50:
                    53:1e:b1:17:64:69:f4:2d:81:e0:a9:0d:0e:32:e9:
                    ba:55:8a:85:f1:1b:6f:49:79:b4:7f:88:c3:0d:3e:
                    54:88:9b:3d:1f:38:8c:04:f3:ee:6a:63:2b:f5:c6:
                    db:b4:83:aa:c4:78:41:3a:7d:4b:e1:c8:3e:71:ca:
                    1b:61:59:ea:c6:c4:ca:32:5e:c9:e9:bf:12:29:e6:
                    c6:c3:63:fe:a0:55:da:7a:f1:60:98:4d:26:ed:fa:
                    70:2d
                Exponent: 65537 (0x10001)
        X509v3 extensions:
            X509v3 Key Usage: 
                Digital Signature, Key Encipherment
            X509v3 Basic Constraints: 
                CA:FALSE
            Netscape Cert Type: 
                SSL Server
            Netscape Comment: 
                OpenSSL Generated Server Certificate
            X509v3 Subject Key Identifier: 
                53:3F:ED:5D:09:07:B3:65:7B:AB:45:C9:24:5B:09:77:80:0A:96:ED
            X509v3 Authority Key Identifier: 
                keyid:F4:A7:C0:CC:91:46:AF:64:F3:91:F2:27:F8:C8:B2:6F:8A:87:32:73
                DirName:/C=DE/ST=Hessen/O=privacyidea/CN=CA001
                serial:FB:C8:EB:AC:83:CD:12:07

            X509v3 Extended Key Usage: 
                TLS Web Server Authentication
    Signature Algorithm: sha256WithRSAEncryption
         14:a8:8d:81:08:40:04:25:b1:fe:ce:a8:43:4a:2b:8e:15:d5:
         cd:96:f4:48:f8:43:6f:8a:8a:93:ec:88:a8:35:a8:3e:25:13:
         9d:13:23:cf:c4:db:1c:11:e9:78:11:99:23:1d:1f:33:be:65:
         e6:00:56:a4:db:11:3e:f3:4a:ce:ff:53:ee:2e:de:f1:d4:e0:
         00:8b:b9:07:d2:3d:89:50:e9:27:66:b1:22:cb:b2:27:65:71:
         80:ea:7e:7f:54:dd:1c:1c:ac:4b:ba:44:83:1d:35:2b:60:40:
         8f:f9:d3:60:e1:15:1b:13:ab:79:11:d1:9d:a0:b6:28:7d:fa:
         20:b6:eb:64:78:85:65:99:ac:12:a8:07:7a:f1:65:94:8a:ab:
         63:92:e7:20:81:83:71:11:49:49:4f:2a:84:a0:08:5a:0a:93:
         7b:62:42:bf:c6:c9:18:c4:b3:7c:3f:e6:4e:d6:15:82:79:cf:
         ee:a1:75:3e:ee:af:7d:50:2c:1c:1f:a4:32:9f:92:94:ac:af:
         5a:fc:d0:6e:28:8b:7a:d4:8e:f1:ca:3e:40:34:36:ea:ad:51:
         07:84:23:1c:48:10:22:4c:70:4a:be:5d:5d:c1:32:92:0b:18:
         01:de:6f:19:a1:e5:34:a2:01:ff:6c:59:9a:20:38:d1:1a:dc:
         06:d3:14:20
-----BEGIN CERTIFICATE-----
MIIEJjCCAw6gAwIBAgIEEAAA5DANBgkqhkiG9w0BAQsFADBEMQswCQYDVQQGEwJE
RTEPMA0GA1UECAwGSGVzc2VuMRQwEgYDVQQKDAtwcml2YWN5aWRlYTEOMAwGA1UE
AwwFQ0EwMDEwHhcNMTkwNDE2MDgzNDM0WhcNMjAwNDE1MDgzNDM0WjBUMQswCQYD
VQQGEwJERTEPMA0GA1UECAwGSGVzc2VuMRQwEgYDVQQKDAtwcml2YWN5aWRlYTEe
MBwGA1UEAwwVcmVxdWVzdGVyLmxvY2FsZG9tYWluMIIBIjANBgkqhkiG9w0BAQEF
AAOCAQ8AMIIBCgKCAQEAzb4UT/rOAT9CIhsdnK/dktJ/22y3PjlDQ2sTA/EF9Ad0
vHZpKAuvGY7X/OPNxljyyn8IbVP8BwJEJMa0NEyMBP4zDkDiILoCc1r39U9jbszG
tt9UHTc5fVE2Jl+93D+oi2uirrad1iHn30G4eigqaEjKqC3t4elGXlpybbSEOIeR
/ZQRCyiExsIvKvsB+TZ6CXXRM4g8c0FbyL+UiXCh8MC5LlBTHrEXZGn0LYHgqQ0O
Mum6VYqF8RtvSXm0f4jDDT5UiJs9HziMBPPuamMr9cbbtIOqxHhBOn1L4cg+ccob
YVnqxsTKMl7J6b8SKebGw2P+oFXaevFgmE0m7fpwLQIDAQABo4IBDjCCAQowCwYD
VR0PBAQDAgWgMAkGA1UdEwQCMAAwEQYJYIZIAYb4QgEBBAQDAgZAMDMGCWCGSAGG
+EIBDQQmFiRPcGVuU1NMIEdlbmVyYXRlZCBTZXJ2ZXIgQ2VydGlmaWNhdGUwHQYD
VR0OBBYEFFM/7V0JB7Nle6tFySRbCXeACpbtMHQGA1UdIwRtMGuAFPSnwMyRRq9k
85HyJ/jIsm+KhzJzoUikRjBEMQswCQYDVQQGEwJERTEPMA0GA1UECAwGSGVzc2Vu
MRQwEgYDVQQKDAtwcml2YWN5aWRlYTEOMAwGA1UEAwwFQ0EwMDGCCQD7yOusg80S
BzATBgNVHSUEDDAKBggrBgEFBQcDATANBgkqhkiG9w0BAQsFAAOCAQEAFKiNgQhA
BCWx/s6oQ0orjhXVzZb0SPhDb4qKk+yIqDWoPiUTnRMjz8TbHBHpeBGZIx0fM75l
5gBWpNsRPvNKzv9T7i7e8dTgAIu5B9I9iVDpJ2axIsuyJ2VxgOp+f1TdHBysS7pE
gx01K2BAj/nTYOEVGxOreRHRnaC2KH36ILbrZHiFZZmsEqgHevFllIqrY5LnIIGD
cRFJSU8qhKAIWgqTe2JCv8bJGMSzfD/mTtYVgnnP7qF1Pu6vfVAsHB+kMp+SlKyv
WvzQbiiLetSO8co+QDQ26q1RB4QjHEgQIkxwSr5dXcEykgsYAd5vGaHlNKIB/2xZ
miA40RrcBtMUIA==
-----END CERTIFICATE-----
