Certificate:
    Data:
        Version: 3 (0x2)
        Serial Number: 268435697 (0x100000f1)
    Signature Algorithm: sha256WithRSAEncryption
        Issuer: C=DE, ST=Hessen, O=privacyidea, CN=CA001
        Validity
            Not Before: Jan  9 20:05:02 2019 GMT
            Not After : Jan 28 20:05:02 2021 GMT
        Subject: CN=Steve Test/emailAddress=steve@openssl.org
        Subject Public Key Info:
            Public Key Algorithm: rsaEncryption
                Public-Key: (2048 bit)
                Modulus:
                    00:d2:81:89:20:51:48:0f:73:f4:11:32:24:d5:1f:
                    1c:fd:5c:f5:b6:e6:c5:f0:52:81:dc:d2:af:66:4a:
                    7c:93:31:61:5c:af:d1:6d:06:70:03:60:7c:72:0c:
                    88:dd:49:cd:9e:02:6c:d2:5a:d7:53:0f:f3:da:be:
                    69:64:b5:0f:0c:00:e3:b3:50:47:a3:b3:9b:ba:13:
                    50:d6:58:5a:4b:ab:39:e0:11:ca:0a:27:67:03:78:
                    22:66:6d:92:1e:1b:5c:49:ae:e6:6b:d1:8e:3b:9d:
                    06:d3:c6:ac:4d:53:43:10:ab:e8:96:c1:87:82:97:
                    99:8f:20:d3:99:12:37:31:84:e1:8a:ff:29:03:5f:
                    22:90:3e:7f:9b:e0:20:c1:ad:dc:ae:4c:39:1a:31:
                    96:17:02:8c:b2:d9:b4:0d:20:12:9b:7d:86:54:fd:
                    33:fd:c1:2a:62:46:f8:60:96:cf:6e:01:6f:22:df:
                    13:47:e7:97:ec:05:72:23:a3:62:f8:fa:ef:ac:9c:
                    72:f0:37:cb:2f:37:cf:90:a8:27:51:86:c6:d7:78:
                    08:8f:7e:25:a2:15:70:a2:fb:1c:b6:15:5e:a0:97:
                    8b:81:4c:09:28:8a:27:3b:94:bc:71:db:5b:71:37:
                    9a:2b:16:e0:6f:b5:c9:f5:4b:4f:20:ba:65:cf:af:
                    ad:ad
                Exponent: 65537 (0x10001)
        X509v3 extensions:
            X509v3 Key Usage: 
                Digital Signature, Key Encipherment
            X509v3 Basic Constraints: 
                CA:FALSE
            Netscape Cert Type: 
                SSL Server
            Netscape Comment: 
                OpenSSL Generated Server Certificate
            X509v3 Subject Key Identifier: 
                E5:25:6D:3E:AF:0D:DD:3F:4C:F2:45:19:39:D5:14:DB:7E:9C:C0:AD
            X509v3 Authority Key Identifier: 
                keyid:F4:A7:C0:CC:91:46:AF:64:F3:91:F2:27:F8:C8:B2:6F:8A:87:32:73
                DirName:/C=DE/ST=Hessen/O=privacyidea/CN=CA001
                serial:FB:C8:EB:AC:83:CD:12:07

            X509v3 Extended Key Usage: 
                TLS Web Server Authentication
    Signature Algorithm: sha256WithRSAEncryption
         ab:3a:ae:59:b6:69:63:5a:4a:6e:db:74:92:00:9b:61:31:ed:
         ae:f7:38:b3:b0:7b:b7:d6:17:7d:35:bb:0e:a1:f9:6b:e9:93:
         30:9f:9f:98:5e:bb:72:06:6b:8f:64:e8:36:bc:15:9b:5f:03:
         45:c2:34:b3:e1:70:60:a3:7f:6f:8f:87:de:6b:b4:ce:b0:a3:
         76:34:e5:11:dd:7c:9b:f8:92:3f:19:ae:c1:7b:c5:7d:5d:d0:
         ed:2d:b5:11:c1:a8:5c:77:41:83:bf:3d:47:59:8b:d4:bb:1d:
         d0:88:5c:6b:43:0e:8b:a1:2b:6e:01:e3:14:79:b4:c2:b6:32:
         c5:aa:3b:8a:e1:b9:80:2d:8e:3b:94:1f:a2:d8:e8:ed:d1:52:
         5d:39:33:3f:e4:83:3f:11:64:2e:30:5a:69:ba:33:ea:de:fd:
         43:93:3f:c5:52:43:ea:f4:b4:56:3a:50:c6:cf:7d:b7:28:60:
         75:e6:5a:0f:6f:61:f4:09:7c:f0:1e:5a:9b:a8:93:e8:a2:47:
         b8:97:2e:94:74:e7:38:9a:3f:9f:98:08:3f:c5:20:a5:b0:1c:
         80:a7:41:ee:7d:18:8a:44:a8:3a:7b:78:13:0d:db:41:32:58:
         3c:bf:97:60:29:6b:57:a3:2d:f9:fe:b6:95:59:6d:8a:89:ab:
         67:cc:8b:1b
-----BEGIN CERTIFICATE-----
MIIECTCCAvGgAwIBAgIEEAAA8TANBgkqhkiG9w0BAQsFADBEMQswCQYDVQQGEwJE
RTEPMA0GA1UECAwGSGVzc2VuMRQwEgYDVQQKDAtwcml2YWN5aWRlYTEOMAwGA1UE
AwwFQ0EwMDEwHhcNMTkwMTA5MjAwNTAyWhcNMjEwMTI4MjAwNTAyWjA3MRMwEQYD
VQQDDApTdGV2ZSBUZXN0MSAwHgYJKoZIhvcNAQkBFhFzdGV2ZUBvcGVuc3NsLm9y
ZzCCASIwDQYJKoZIhvcNAQEBBQADggEPADCCAQoCggEBANKBiSBRSA9z9BEyJNUf
HP1c9bbmxfBSgdzSr2ZKfJMxYVyv0W0GcANgfHIMiN1JzZ4CbNJa11MP89q+aWS1
DwwA47NQR6Ozm7oTUNZYWkurOeARygonZwN4ImZtkh4bXEmu5mvRjjudBtPGrE1T
QxCr6JbBh4KXmY8g05kSNzGE4Yr/KQNfIpA+f5vgIMGt3K5MORoxlhcCjLLZtA0g
Ept9hlT9M/3BKmJG+GCWz24BbyLfE0fnl+wFciOjYvj676yccvA3yy83z5CoJ1GG
xtd4CI9+JaIVcKL7HLYVXqCXi4FMCSiKJzuUvHHbW3E3misW4G+1yfVLTyC6Zc+v
ra0CAwEAAaOCAQ4wggEKMAsGA1UdDwQEAwIFoDAJBgNVHRMEAjAAMBEGCWCGSAGG
+EIBAQQEAwIGQDAzBglghkgBhvhCAQ0EJhYkT3BlblNTTCBHZW5lcmF0ZWQgU2Vy
dmVyIENlcnRpZmljYXRlMB0GA1UdDgQWBBTlJW0+rw3dP0zyRRk51RTbfpzArTB0
BgNVHSMEbTBrgBT0p8DMkUavZPOR8if4yLJviocyc6FIpEYwRDELMAkGA1UEBhMC
REUxDzANBgNVBAgMBkhlc3NlbjEUMBIGA1UECgwLcHJpdmFjeWlkZWExDjAMBgNV
BAMMBUNBMDAxggkA+8jrrIPNEgcwEwYDVR0lBAwwCgYIKwYBBQUHAwEwDQYJKoZI
hvcNAQELBQADggEBAKs6rlm2aWNaSm7bdJIAm2Ex7a73OLOwe7fWF301uw6h+Wvp
kzCfn5heu3IGa49k6Da8FZtfA0XCNLPhcGCjf2+Ph95rtM6wo3Y05RHdfJv4kj8Z
rsF7xX1d0O0ttRHBqFx3QYO/PUdZi9S7HdCIXGtDDouhK24B4xR5tMK2MsWqO4rh
uYAtjjuUH6LY6O3RUl05Mz/kgz8RZC4wWmm6M+re/UOTP8VSQ+r0tFY6UMbPfbco
YHXmWg9vYfQJfPAeWpuok+iiR7iXLpR05ziaP5+YCD/FIKWwHICnQe59GIpEqDp7
eBMN20EyWDy/l2Apa1ejLfn+tpVZbYqJq2fMixs=
-----END CERTIFICATE-----
