Certificate:
    Data:
        Version: 3 (0x2)
        Serial Number: 268435693 (0x100000ed)
    Signature Algorithm: sha256WithRSAEncryption
        Issuer: C=DE, ST=Hessen, O=privacyidea, CN=CA001
        Validity
            Not Before: Apr 16 14:35:34 2019 GMT
            Not After : Apr 15 14:35:34 2020 GMT
        Subject: OU=realm1, CN=cornelius/emailAddress=user@localhost.localdomain
        Subject Public Key Info:
            Public Key Algorithm: rsaEncryption
                Public-Key: (2048 bit)
                Modulus:
                    00:ac:79:06:88:c8:d1:34:64:fd:1e:9a:1a:da:d8:
                    29:b6:b7:44:6c:16:ac:c4:67:da:99:8e:b8:ec:7b:
                    4b:e0:32:0c:c2:54:b3:67:aa:50:da:3b:db:2a:6c:
                    40:e6:3b:09:25:e6:f5:b0:3a:3e:14:21:cf:97:b6:
                    42:d2:7e:0c:1a:33:21:4e:7e:cf:85:e3:4c:07:b5:
                    29:26:e1:55:e8:31:05:96:00:95:98:1d:a8:6b:6a:
                    82:55:b6:d3:f6:f5:81:48:92:0b:b4:cf:b8:0e:e1:
                    e1:36:3c:11:0c:0c:ff:6a:f3:99:e4:0d:67:0d:8f:
                    89:14:cd:e6:cb:11:d0:8b:c2:e9:ad:83:12:20:82:
                    00:24:85:ef:ba:4e:b5:c6:b1:b9:d2:8a:cd:f4:f0:
                    09:4e:90:73:29:0e:b4:8c:c7:8b:62:73:23:76:4c:
                    5c:1c:40:1d:d4:17:48:5b:24:a8:f4:07:a1:24:ae:
                    64:83:89:0d:08:21:67:e3:22:91:1b:ea:b3:3f:b0:
                    56:c5:b3:11:b5:2d:a4:29:8b:f7:c4:96:cb:de:33:
                    c4:ca:0d:ba:e7:c4:64:26:a2:a7:c7:f9:5c:93:af:
                    91:be:c4:ec:5a:ed:42:a0:4e:f7:30:3a:28:b3:2a:
                    b6:66:a6:3f:ca:00:06:5c:00:c3:d2:02:33:6b:0f:
                    24:5f
                Exponent: 65537 (0x10001)
        X509v3 extensions:
            X509v3 Key Usage: 
                Digital Signature, Key Encipherment
            X509v3 Basic Constraints: 
                CA:FALSE
            Netscape Cert Type: 
                SSL Server
            Netscape Comment: 
                OpenSSL Generated Server Certificate
            X509v3 Subject Key Identifier: 
                74:00:0E:52:B5:DA:9A:6A:04:4C:98:AE:30:ED:A9:4F:6A:29:DF:13
            X509v3 Authority Key Identifier: 
                keyid:F4:A7:C0:CC:91:46:AF:64:F3:91:F2:27:F8:C8:B2:6F:8A:87:32:73
                DirName:/C=DE/ST=Hessen/O=privacyidea/CN=CA001
                serial:FB:C8:EB:AC:83:CD:12:07

            X509v3 Extended Key Usage: 
                TLS Web Server Authentication
    Signature Algorithm: sha256WithRSAEncryption
         6e:9d:2a:42:c3:f7:c2:33:8e:a9:54:46:e8:8b:64:02:28:65:
         ba:5c:33:51:21:55:55:63:27:55:a2:ae:00:ef:67:62:83:eb:
         50:ab:96:bb:d0:fe:da:1e:14:30:0b:2c:78:d5:aa:38:48:18:
         1a:e1:b6:c0:5c:48:f2:f0:0a:2b:86:ef:03:96:12:70:40:85:
         0d:a0:fc:39:a0:06:68:80:22:6a:87:e8:f1:c5:d9:2c:2a:54:
         79:c7:eb:de:c3:9d:cc:2f:ec:a9:b4:44:df:2e:93:58:01:86:
         d7:5f:0c:61:04:12:aa:8d:8e:c1:3b:14:1d:15:ab:19:05:ee:
         82:6d:e4:c9:91:4f:88:d4:0c:96:27:54:1b:76:5a:13:12:fe:
         dd:72:1c:d8:bf:72:34:7b:33:01:1e:38:33:86:98:03:df:1e:
         14:fa:55:17:63:e3:cf:37:85:54:4b:0f:f7:51:0d:76:3c:cc:
         73:f7:18:dd:ca:7a:e9:aa:83:9b:69:51:5d:92:a5:9c:b7:de:
         a0:53:34:a4:73:86:80:cd:e7:cb:b5:9f:e4:9d:38:c4:5f:61:
         61:e9:b8:45:f2:1b:65:6b:e5:8c:5e:7b:53:32:cd:84:de:52:
         d0:af:f5:fb:e4:a4:cb:13:be:87:f2:e8:bf:97:03:86:77:15:
         2b:fa:14:11
-----BEGIN CERTIFICATE-----
MIIEIjCCAwqgAwIBAgIEEAAA7TANBgkqhkiG9w0BAQsFADBEMQswCQYDVQQGEwJE
RTEPMA0GA1UECAwGSGVzc2VuMRQwEgYDVQQKDAtwcml2YWN5aWRlYTEOMAwGA1UE
AwwFQ0EwMDEwHhcNMTkwNDE2MTQzNTM0WhcNMjAwNDE1MTQzNTM0WjBQMQ8wDQYD
VQQLDAZyZWFsbTExEjAQBgNVBAMMCWNvcm5lbGl1czEpMCcGCSqGSIb3DQEJARYa
dXNlckBsb2NhbGhvc3QubG9jYWxkb21haW4wggEiMA0GCSqGSIb3DQEBAQUAA4IB
DwAwggEKAoIBAQCseQaIyNE0ZP0emhra2Cm2t0RsFqzEZ9qZjrjse0vgMgzCVLNn
qlDaO9sqbEDmOwkl5vWwOj4UIc+XtkLSfgwaMyFOfs+F40wHtSkm4VXoMQWWAJWY
HahraoJVttP29YFIkgu0z7gO4eE2PBEMDP9q85nkDWcNj4kUzebLEdCLwumtgxIg
ggAkhe+6TrXGsbnSis308AlOkHMpDrSMx4ticyN2TFwcQB3UF0hbJKj0B6EkrmSD
iQ0IIWfjIpEb6rM/sFbFsxG1LaQpi/fElsveM8TKDbrnxGQmoqfH+VyTr5G+xOxa
7UKgTvcwOiizKrZmpj/KAAZcAMPSAjNrDyRfAgMBAAGjggEOMIIBCjALBgNVHQ8E
BAMCBaAwCQYDVR0TBAIwADARBglghkgBhvhCAQEEBAMCBkAwMwYJYIZIAYb4QgEN
BCYWJE9wZW5TU0wgR2VuZXJhdGVkIFNlcnZlciBDZXJ0aWZpY2F0ZTAdBgNVHQ4E
FgQUdAAOUrXammoETJiuMO2pT2op3xMwdAYDVR0jBG0wa4AU9KfAzJFGr2TzkfIn
+Miyb4qHMnOhSKRGMEQxCzAJBgNVBAYTAkRFMQ8wDQYDVQQIDAZIZXNzZW4xFDAS
BgNVBAoMC3ByaXZhY3lpZGVhMQ4wDAYDVQQDDAVDQTAwMYIJAPvI66yDzRIHMBMG
A1UdJQQMMAoGCCsGAQUFBwMBMA0GCSqGSIb3DQEBCwUAA4IBAQBunSpCw/fCM46p
VEboi2QCKGW6XDNRIVVVYydVoq4A72dig+tQq5a70P7aHhQwCyx41ao4SBga4bbA
XEjy8Aorhu8DlhJwQIUNoPw5oAZogCJqh+jxxdksKlR5x+vew53ML+yptETfLpNY
AYbXXwxhBBKqjY7BOxQdFasZBe6CbeTJkU+I1AyWJ1QbdloTEv7dchzYv3I0ezMB
HjgzhpgD3x4U+lUXY+PPN4VUSw/3UQ12PMxz9xjdynrpqoObaVFdkqWct96gUzSk
c4aAzefLtZ/knTjEX2Fh6bhF8htla+WMXntTMs2E3lLQr/X75KTLE76H8ui/lwOG
dxUr+hQR
-----END CERTIFICATE-----
