Certificate:
    Data:
        Version: 3 (0x2)
        Serial Number: 268435682 (0x100000e2)
    Signature Algorithm: sha256WithRSAEncryption
        Issuer: C=DE, ST=Hessen, O=privacyidea, CN=CA001
        Validity
            Not Before: Apr 16 08:32:27 2019 GMT
            Not After : Apr 15 08:32:27 2020 GMT
        Subject: CN=Steve Test/emailAddress=steve@openssl.org
        Subject Public Key Info:
            Public Key Algorithm: rsaEncryption
                Public-Key: (2048 bit)
                Modulus:
                    00:d2:81:89:20:51:48:0f:73:f4:11:32:24:d5:1f:
                    1c:fd:5c:f5:b6:e6:c5:f0:52:81:dc:d2:af:66:4a:
                    7c:93:31:61:5c:af:d1:6d:06:70:03:60:7c:72:0c:
                    88:dd:49:cd:9e:02:6c:d2:5a:d7:53:0f:f3:da:be:
                    69:64:b5:0f:0c:00:e3:b3:50:47:a3:b3:9b:ba:13:
                    50:d6:58:5a:4b:ab:39:e0:11:ca:0a:27:67:03:78:
                    22:66:6d:92:1e:1b:5c:49:ae:e6:6b:d1:8e:3b:9d:
                    06:d3:c6:ac:4d:53:43:10:ab:e8:96:c1:87:82:97:
                    99:8f:20:d3:99:12:37:31:84:e1:8a:ff:29:03:5f:
                    22:90:3e:7f:9b:e0:20:c1:ad:dc:ae:4c:39:1a:31:
                    96:17:02:8c:b2:d9:b4:0d:20:12:9b:7d:86:54:fd:
                    33:fd:c1:2a:62:46:f8:60:96:cf:6e:01:6f:22:df:
                    13:47:e7:97:ec:05:72:23:a3:62:f8:fa:ef:ac:9c:
                    72:f0:37:cb:2f:37:cf:90:a8:27:51:86:c6:d7:78:
                    08:8f:7e:25:a2:15:70:a2:fb:1c:b6:15:5e:a0:97:
                    8b:81:4c:09:28:8a:27:3b:94:bc:71:db:5b:71:37:
                    9a:2b:16:e0:6f:b5:c9:f5:4b:4f:20:ba:65:cf:af:
                    ad:ad
                Exponent: 65537 (0x10001)
        X509v3 extensions:
            X509v3 Key Usage: 
                Digital Signature, Key Encipherment
            X509v3 Basic Constraints: 
                CA:FALSE
            Netscape Cert Type: 
                SSL Server
            Netscape Comment: 
                OpenSSL Generated Server Certificate
            X509v3 Subject Key Identifier: 
                E5:25:6D:3E:AF:0D:DD:3F:4C:F2:45:19:39:D5:14:DB:7E:9C:C0:AD
            X509v3 Authority Key Identifier: 
                keyid:F4:A7:C0:CC:91:46:AF:64:F3:91:F2:27:F8:C8:B2:6F:8A:87:32:73
                DirName:/C=DE/ST=Hessen/O=privacyidea/CN=CA001
                serial:FB:C8:EB:AC:83:CD:12:07

            X509v3 Extended Key Usage: 
                TLS Web Server Authentication
    Signature Algorithm: sha256WithRSAEncryption
         bb:21:90:09:c9:b3:ee:f2:36:83:ea:35:c3:11:45:08:b7:ad:
         cd:89:e9:4e:4a:e4:5a:ad:68:2c:92:ce:c4:30:69:85:15:81:
         5c:49:6a:80:11:e8:17:d8:75:98:86:2d:db:9c:ed:94:7e:e4:
         89:fe:9e:4f:3e:0f:17:af:cf:f2:40:78:33:e8:be:6a:fd:bd:
         b9:58:54:cd:5e:3f:60:7a:4a:37:f8:cf:9f:1a:20:f9:5d:4f:
         c2:1c:ea:f0:7d:86:c5:9d:29:71:30:23:00:2e:93:6e:6f:a7:
         dc:48:3b:39:2e:aa:67:75:e5:5f:d6:64:51:4d:b1:57:a9:6a:
         aa:47:fd:0f:aa:48:18:74:fb:6f:91:38:ed:f0:32:0a:ed:9e:
         c0:44:c1:1c:57:dc:f7:ba:7d:3b:22:51:d4:45:ae:c4:55:e3:
         9f:2a:78:58:71:da:2d:d3:4f:0f:cf:54:63:e5:4d:60:f0:d1:
         d1:de:f9:77:d9:22:d8:b1:36:15:d5:d8:18:85:12:74:6c:8c:
         f5:58:2f:e4:ec:7e:e3:87:b1:eb:de:08:79:72:13:64:b3:a8:
         6e:c6:d3:24:aa:bd:ce:64:82:c7:aa:16:15:52:ea:90:ae:24:
         df:73:2e:38:dc:a7:51:47:35:30:e8:e3:25:5e:1a:c5:05:b2:
         60:08:3a:0b
-----BEGIN CERTIFICATE-----
MIIECTCCAvGgAwIBAgIEEAAA4jANBgkqhkiG9w0BAQsFADBEMQswCQYDVQQGEwJE
RTEPMA0GA1UECAwGSGVzc2VuMRQwEgYDVQQKDAtwcml2YWN5aWRlYTEOMAwGA1UE
AwwFQ0EwMDEwHhcNMTkwNDE2MDgzMjI3WhcNMjAwNDE1MDgzMjI3WjA3MRMwEQYD
VQQDDApTdGV2ZSBUZXN0MSAwHgYJKoZIhvcNAQkBFhFzdGV2ZUBvcGVuc3NsLm9y
ZzCCASIwDQYJKoZIhvcNAQEBBQADggEPADCCAQoCggEBANKBiSBRSA9z9BEyJNUf
HP1c9bbmxfBSgdzSr2ZKfJMxYVyv0W0GcANgfHIMiN1JzZ4CbNJa11MP89q+aWS1
DwwA47NQR6Ozm7oTUNZYWkurOeARygonZwN4ImZtkh4bXEmu5mvRjjudBtPGrE1T
QxCr6JbBh4KXmY8g05kSNzGE4Yr/KQNfIpA+f5vgIMGt3K5MORoxlhcCjLLZtA0g
Ept9hlT9M/3BKmJG+GCWz24BbyLfE0fnl+wFciOjYvj676yccvA3yy83z5CoJ1GG
xtd4CI9+JaIVcKL7HLYVXqCXi4FMCSiKJzuUvHHbW3E3misW4G+1yfVLTyC6Zc+v
ra0CAwEAAaOCAQ4wggEKMAsGA1UdDwQEAwIFoDAJBgNVHRMEAjAAMBEGCWCGSAGG
+EIBAQQEAwIGQDAzBglghkgBhvhCAQ0EJhYkT3BlblNTTCBHZW5lcmF0ZWQgU2Vy
dmVyIENlcnRpZmljYXRlMB0GA1UdDgQWBBTlJW0+rw3dP0zyRRk51RTbfpzArTB0
BgNVHSMEbTBrgBT0p8DMkUavZPOR8if4yLJviocyc6FIpEYwRDELMAkGA1UEBhMC
REUxDzANBgNVBAgMBkhlc3NlbjEUMBIGA1UECgwLcHJpdmFjeWlkZWExDjAMBgNV
BAMMBUNBMDAxggkA+8jrrIPNEgcwEwYDVR0lBAwwCgYIKwYBBQUHAwEwDQYJKoZI
hvcNAQELBQADggEBALshkAnJs+7yNoPqNcMRRQi3rc2J6U5K5FqtaCySzsQwaYUV
gVxJaoAR6BfYdZiGLduc7ZR+5In+nk8+Dxevz/JAeDPovmr9vblYVM1eP2B6Sjf4
z58aIPldT8Ic6vB9hsWdKXEwIwAuk25vp9xIOzkuqmd15V/WZFFNsVepaqpH/Q+q
SBh0+2+ROO3wMgrtnsBEwRxX3Pe6fTsiUdRFrsRV458qeFhx2i3TTw/PVGPlTWDw
0dHe+XfZItixNhXV2BiFEnRsjPVYL+TsfuOHseveCHlyE2SzqG7G0ySqvc5kgseq
FhVS6pCuJN9zLjjcp1FHNTDo4yVeGsUFsmAIOgs=
-----END CERTIFICATE-----
