Certificate:
    Data:
        Version: 3 (0x2)
        Serial Number: 268435677 (0x100000dd)
    Signature Algorithm: sha256WithRSAEncryption
        Issuer: C=DE, ST=Hessen, O=privacyidea, CN=CA001
        Validity
            Not Before: May 23 14:24:10 2019 GMT
            Not After : May 22 14:24:10 2020 GMT
        Subject: C=DE, ST=Hessen, O=privacyidea, CN=requester.localdomain
        Subject Public Key Info:
            Public Key Algorithm: rsaEncryption
                Public-Key: (2048 bit)
                Modulus:
                    00:cd:be:14:4f:fa:ce:01:3f:42:22:1b:1d:9c:af:
                    dd:92:d2:7f:db:6c:b7:3e:39:43:43:6b:13:03:f1:
                    05:f4:07:74:bc:76:69:28:0b:af:19:8e:d7:fc:e3:
                    cd:c6:58:f2:ca:7f:08:6d:53:fc:07:02:44:24:c6:
                    b4:34:4c:8c:04:fe:33:0e:40:e2:20:ba:02:73:5a:
                    f7:f5:4f:63:6e:cc:c6:b6:df:54:1d:37:39:7d:51:
                    36:26:5f:bd:dc:3f:a8:8b:6b:a2:ae:b6:9d:d6:21:
                    e7:df:41:b8:7a:28:2a:68:48:ca:a8:2d:ed:e1:e9:
                    46:5e:5a:72:6d:b4:84:38:87:91:fd:94:11:0b:28:
                    84:c6:c2:2f:2a:fb:01:f9:36:7a:09:75:d1:33:88:
                    3c:73:41:5b:c8:bf:94:89:70:a1:f0:c0:b9:2e:50:
                    53:1e:b1:17:64:69:f4:2d:81:e0:a9:0d:0e:32:e9:
                    ba:55:8a:85:f1:1b:6f:49:79:b4:7f:88:c3:0d:3e:
                    54:88:9b:3d:1f:38:8c:04:f3:ee:6a:63:2b:f5:c6:
                    db:b4:83:aa:c4:78:41:3a:7d:4b:e1:c8:3e:71:ca:
                    1b:61:59:ea:c6:c4:ca:32:5e:c9:e9:bf:12:29:e6:
                    c6:c3:63:fe:a0:55:da:7a:f1:60:98:4d:26:ed:fa:
                    70:2d
                Exponent: 65537 (0x10001)
        X509v3 extensions:
            X509v3 Key Usage: 
                Digital Signature, Key Encipherment
            X509v3 Basic Constraints: 
                CA:FALSE
            Netscape Cert Type: 
                SSL Server
            Netscape Comment: 
                OpenSSL Generated Server Certificate
            X509v3 Subject Key Identifier: 
                53:3F:ED:5D:09:07:B3:65:7B:AB:45:C9:24:5B:09:77:80:0A:96:ED
            X509v3 Authority Key Identifier: 
                keyid:F4:A7:C0:CC:91:46:AF:64:F3:91:F2:27:F8:C8:B2:6F:8A:87:32:73
                DirName:/C=DE/ST=Hessen/O=privacyidea/CN=CA001
                serial:FB:C8:EB:AC:83:CD:12:07

            X509v3 Extended Key Usage: 
                TLS Web Server Authentication
    Signature Algorithm: sha256WithRSAEncryption
         b7:f0:db:3a:b8:6a:dc:e4:f3:fa:d3:01:9a:2f:d3:17:48:11:
         eb:27:cb:95:21:f0:e0:1e:a2:8a:f4:c8:15:09:b7:87:76:ed:
         b6:72:e2:eb:56:cf:ad:cc:fe:75:72:78:46:c0:fb:e8:32:52:
         d6:ac:c7:0d:18:af:c1:2d:7c:77:cf:08:58:8f:c6:fc:1d:68:
         5b:60:85:1e:45:e5:36:c3:94:fb:78:9b:33:63:c8:b8:a7:7a:
         ae:bc:ff:8b:e4:3b:1c:fd:1e:65:6b:24:50:25:62:c2:ce:98:
         36:f7:60:46:ce:94:e7:df:a5:50:c2:e4:3c:c6:7d:2d:a2:ee:
         02:48:0c:9a:c7:46:cd:84:40:1d:22:64:2c:5a:f1:d4:80:ca:
         1c:cf:62:67:3b:fe:4a:c2:28:b3:16:12:fe:9b:da:fd:bd:5f:
         1a:1d:a2:bd:3e:8f:29:b9:20:a8:f8:17:03:17:81:f3:7e:36:
         20:56:3f:bb:24:da:89:44:bb:55:ef:ce:0f:08:ca:bc:5a:35:
         09:ae:dc:12:a1:78:d5:53:d8:83:a1:3b:c4:8e:0d:92:06:50:
         79:91:8f:07:44:f8:bf:c7:7d:d8:6e:b8:19:60:7d:66:ac:39:
         fb:1e:c1:69:f4:4b:38:cc:82:18:a6:20:d1:a8:ec:7d:af:08:
         52:11:ab:62
-----BEGIN CERTIFICATE-----
MIIEJjCCAw6gAwIBAgIEEAAA3TANBgkqhkiG9w0BAQsFADBEMQswCQYDVQQGEwJE
RTEPMA0GA1UECAwGSGVzc2VuMRQwEgYDVQQKDAtwcml2YWN5aWRlYTEOMAwGA1UE
AwwFQ0EwMDEwHhcNMTkwNTIzMTQyNDEwWhcNMjAwNTIyMTQyNDEwWjBUMQswCQYD
VQQGEwJERTEPMA0GA1UECAwGSGVzc2VuMRQwEgYDVQQKDAtwcml2YWN5aWRlYTEe
MBwGA1UEAwwVcmVxdWVzdGVyLmxvY2FsZG9tYWluMIIBIjANBgkqhkiG9w0BAQEF
AAOCAQ8AMIIBCgKCAQEAzb4UT/rOAT9CIhsdnK/dktJ/22y3PjlDQ2sTA/EF9Ad0
vHZpKAuvGY7X/OPNxljyyn8IbVP8BwJEJMa0NEyMBP4zDkDiILoCc1r39U9jbszG
tt9UHTc5fVE2Jl+93D+oi2uirrad1iHn30G4eigqaEjKqC3t4elGXlpybbSEOIeR
/ZQRCyiExsIvKvsB+TZ6CXXRM4g8c0FbyL+UiXCh8MC5LlBTHrEXZGn0LYHgqQ0O
Mum6VYqF8RtvSXm0f4jDDT5UiJs9HziMBPPuamMr9cbbtIOqxHhBOn1L4cg+ccob
YVnqxsTKMl7J6b8SKebGw2P+oFXaevFgmE0m7fpwLQIDAQABo4IBDjCCAQowCwYD
VR0PBAQDAgWgMAkGA1UdEwQCMAAwEQYJYIZIAYb4QgEBBAQDAgZAMDMGCWCGSAGG
+EIBDQQmFiRPcGVuU1NMIEdlbmVyYXRlZCBTZXJ2ZXIgQ2VydGlmaWNhdGUwHQYD
VR0OBBYEFFM/7V0JB7Nle6tFySRbCXeACpbtMHQGA1UdIwRtMGuAFPSnwMyRRq9k
85HyJ/jIsm+KhzJzoUikRjBEMQswCQYDVQQGEwJERTEPMA0GA1UECAwGSGVzc2Vu
MRQwEgYDVQQKDAtwcml2YWN5aWRlYTEOMAwGA1UEAwwFQ0EwMDGCCQD7yOusg80S
BzATBgNVHSUEDDAKBggrBgEFBQcDATANBgkqhkiG9w0BAQsFAAOCAQEAt/DbOrhq
3OTz+tMBmi/TF0gR6yfLlSHw4B6iivTIFQm3h3bttnLi61bPrcz+dXJ4RsD76DJS
1qzHDRivwS18d88IWI/G/B1oW2CFHkXlNsOU+3ibM2PIuKd6rrz/i+Q7HP0eZWsk
UCViws6YNvdgRs6U59+lUMLkPMZ9LaLuAkgMmsdGzYRAHSJkLFrx1IDKHM9iZzv+
SsIosxYS/pva/b1fGh2ivT6PKbkgqPgXAxeB8342IFY/uyTaiUS7Ve/ODwjKvFo1
Ca7cEqF41VPYg6E7xI4NkgZQeZGPB0T4v8d92G64GWB9Zqw5+x7BafRLOMyCGKYg
0ajsfa8IUhGrYg==
-----END CERTIFICATE-----
