Certificate:
    Data:
        Version: 3 (0x2)
        Serial Number: 268435676 (0x100000dc)
    Signature Algorithm: sha256WithRSAEncryption
        Issuer: C=DE, ST=Hessen, O=privacyidea, CN=CA001
        Validity
            Not Before: May 23 14:21:59 2019 GMT
            Not After : Jun 11 14:21:59 2021 GMT
        Subject: CN=Steve Test/emailAddress=steve@openssl.org
        Subject Public Key Info:
            Public Key Algorithm: rsaEncryption
                Public-Key: (2048 bit)
                Modulus:
                    00:d2:81:89:20:51:48:0f:73:f4:11:32:24:d5:1f:
                    1c:fd:5c:f5:b6:e6:c5:f0:52:81:dc:d2:af:66:4a:
                    7c:93:31:61:5c:af:d1:6d:06:70:03:60:7c:72:0c:
                    88:dd:49:cd:9e:02:6c:d2:5a:d7:53:0f:f3:da:be:
                    69:64:b5:0f:0c:00:e3:b3:50:47:a3:b3:9b:ba:13:
                    50:d6:58:5a:4b:ab:39:e0:11:ca:0a:27:67:03:78:
                    22:66:6d:92:1e:1b:5c:49:ae:e6:6b:d1:8e:3b:9d:
                    06:d3:c6:ac:4d:53:43:10:ab:e8:96:c1:87:82:97:
                    99:8f:20:d3:99:12:37:31:84:e1:8a:ff:29:03:5f:
                    22:90:3e:7f:9b:e0:20:c1:ad:dc:ae:4c:39:1a:31:
                    96:17:02:8c:b2:d9:b4:0d:20:12:9b:7d:86:54:fd:
                    33:fd:c1:2a:62:46:f8:60:96:cf:6e:01:6f:22:df:
                    13:47:e7:97:ec:05:72:23:a3:62:f8:fa:ef:ac:9c:
                    72:f0:37:cb:2f:37:cf:90:a8:27:51:86:c6:d7:78:
                    08:8f:7e:25:a2:15:70:a2:fb:1c:b6:15:5e:a0:97:
                    8b:81:4c:09:28:8a:27:3b:94:bc:71:db:5b:71:37:
                    9a:2b:16:e0:6f:b5:c9:f5:4b:4f:20:ba:65:cf:af:
                    ad:ad
                Exponent: 65537 (0x10001)
        X509v3 extensions:
            X509v3 Key Usage: 
                Digital Signature, Key Encipherment
            X509v3 Basic Constraints: 
                CA:FALSE
            Netscape Cert Type: 
                SSL Server
            Netscape Comment: 
                OpenSSL Generated Server Certificate
            X509v3 Subject Key Identifier: 
                E5:25:6D:3E:AF:0D:DD:3F:4C:F2:45:19:39:D5:14:DB:7E:9C:C0:AD
            X509v3 Authority Key Identifier: 
                keyid:F4:A7:C0:CC:91:46:AF:64:F3:91:F2:27:F8:C8:B2:6F:8A:87:32:73
                DirName:/C=DE/ST=Hessen/O=privacyidea/CN=CA001
                serial:FB:C8:EB:AC:83:CD:12:07

            X509v3 Extended Key Usage: 
                TLS Web Server Authentication
    Signature Algorithm: sha256WithRSAEncryption
         34:14:17:2f:64:68:c7:d6:27:a1:32:33:e5:ef:75:e9:c3:56:
         20:19:6c:4d:0a:c0:38:56:89:71:f2:ab:ea:ca:56:ad:65:34:
         96:bd:c3:a3:e5:47:7c:e0:c6:f3:19:a2:4f:33:09:86:5f:83:
         66:70:9d:78:44:07:4d:b0:9a:7d:88:4a:2d:3f:87:41:08:6e:
         c6:a3:6d:a1:82:cc:29:55:30:31:58:d3:e4:a8:ec:94:dd:e2:
         0f:25:40:fc:48:69:18:55:80:76:56:6a:75:c8:ee:15:e6:c9:
         e4:e2:62:31:95:fa:2e:1c:bd:8b:4c:80:03:c6:47:86:bf:0f:
         a0:3a:2e:e5:ac:43:03:66:4a:3f:d0:31:a4:3c:b1:4f:89:d4:
         5d:c3:69:1f:be:c1:02:46:e9:4e:0a:30:60:4a:d5:10:d6:55:
         e9:ae:0a:a1:1f:62:58:49:bb:32:3a:0e:dc:bb:51:18:c1:f9:
         2a:02:16:02:b2:fe:88:6b:51:f3:8f:29:fe:5c:0e:ea:10:6d:
         94:c6:e9:26:c8:b2:18:cf:c4:4c:80:d0:9a:36:6b:32:9b:32:
         24:43:58:24:75:8d:ce:6a:29:27:65:f3:03:6a:c9:0e:f0:95:
         3a:ec:a6:f1:b7:0b:55:21:11:c4:1d:3a:15:50:58:54:16:50:
         b3:8b:ab:35
-----BEGIN CERTIFICATE-----
MIIECTCCAvGgAwIBAgIEEAAA3DANBgkqhkiG9w0BAQsFADBEMQswCQYDVQQGEwJE
RTEPMA0GA1UECAwGSGVzc2VuMRQwEgYDVQQKDAtwcml2YWN5aWRlYTEOMAwGA1UE
AwwFQ0EwMDEwHhcNMTkwNTIzMTQyMTU5WhcNMjEwNjExMTQyMTU5WjA3MRMwEQYD
VQQDDApTdGV2ZSBUZXN0MSAwHgYJKoZIhvcNAQkBFhFzdGV2ZUBvcGVuc3NsLm9y
ZzCCASIwDQYJKoZIhvcNAQEBBQADggEPADCCAQoCggEBANKBiSBRSA9z9BEyJNUf
HP1c9bbmxfBSgdzSr2ZKfJMxYVyv0W0GcANgfHIMiN1JzZ4CbNJa11MP89q+aWS1
DwwA47NQR6Ozm7oTUNZYWkurOeARygonZwN4ImZtkh4bXEmu5mvRjjudBtPGrE1T
QxCr6JbBh4KXmY8g05kSNzGE4Yr/KQNfIpA+f5vgIMGt3K5MORoxlhcCjLLZtA0g
Ept9hlT9M/3BKmJG+GCWz24BbyLfE0fnl+wFciOjYvj676yccvA3yy83z5CoJ1GG
xtd4CI9+JaIVcKL7HLYVXqCXi4FMCSiKJzuUvHHbW3E3misW4G+1yfVLTyC6Zc+v
ra0CAwEAAaOCAQ4wggEKMAsGA1UdDwQEAwIFoDAJBgNVHRMEAjAAMBEGCWCGSAGG
+EIBAQQEAwIGQDAzBglghkgBhvhCAQ0EJhYkT3BlblNTTCBHZW5lcmF0ZWQgU2Vy
dmVyIENlcnRpZmljYXRlMB0GA1UdDgQWBBTlJW0+rw3dP0zyRRk51RTbfpzArTB0
BgNVHSMEbTBrgBT0p8DMkUavZPOR8if4yLJviocyc6FIpEYwRDELMAkGA1UEBhMC
REUxDzANBgNVBAgMBkhlc3NlbjEUMBIGA1UECgwLcHJpdmFjeWlkZWExDjAMBgNV
BAMMBUNBMDAxggkA+8jrrIPNEgcwEwYDVR0lBAwwCgYIKwYBBQUHAwEwDQYJKoZI
hvcNAQELBQADggEBADQUFy9kaMfWJ6EyM+XvdenDViAZbE0KwDhWiXHyq+rKVq1l
NJa9w6PlR3zgxvMZok8zCYZfg2ZwnXhEB02wmn2ISi0/h0EIbsajbaGCzClVMDFY
0+So7JTd4g8lQPxIaRhVgHZWanXI7hXmyeTiYjGV+i4cvYtMgAPGR4a/D6A6LuWs
QwNmSj/QMaQ8sU+J1F3DaR++wQJG6U4KMGBK1RDWVemuCqEfYlhJuzI6Dty7URjB
+SoCFgKy/ohrUfOPKf5cDuoQbZTG6SbIshjPxEyA0Jo2azKbMiRDWCR1jc5qKSdl
8wNqyQ7wlTrspvG3C1UhEcQdOhVQWFQWULOLqzU=
-----END CERTIFICATE-----
