Certificate:
    Data:
        Version: 3 (0x2)
        Serial Number: 268435678 (0x100000de)
    Signature Algorithm: sha256WithRSAEncryption
        Issuer: C=DE, ST=Hessen, O=privacyidea, CN=CA001
        Validity
            Not Before: May 23 14:24:11 2019 GMT
            Not After : May 22 14:24:11 2020 GMT
        Subject: OU=realm1, CN=cornelius/emailAddress=user@localhost.localdomain
        Subject Public Key Info:
            Public Key Algorithm: rsaEncryption
                Public-Key: (2048 bit)
                Modulus:
                    00:b3:45:80:d5:c3:78:86:c3:80:82:81:d3:32:7b:
                    de:25:b7:fe:25:e9:3c:13:96:86:29:f2:41:25:a9:
                    39:0e:30:e9:be:75:08:f4:d6:09:dc:c7:d1:92:2c:
                    52:00:05:27:67:ca:15:c5:d4:24:f7:4c:d7:ff:34:
                    50:8e:22:b8:2c:bb:92:f5:81:96:f1:3f:22:3f:5c:
                    79:54:63:3c:11:42:3f:f5:b0:36:a2:5a:96:80:69:
                    6c:ed:df:9a:4c:0b:cf:59:1d:fc:01:da:f1:bf:fb:
                    f7:7a:a0:b2:16:da:61:6d:0f:ac:3e:3a:25:74:6b:
                    61:b7:eb:1f:b8:c9:e7:1f:76:fd:1c:71:79:57:6d:
                    f7:fe:c5:3e:aa:0e:e1:ea:53:ef:b0:66:54:49:86:
                    1e:b3:97:7f:4c:16:2b:ac:f6:fd:2e:9b:1f:00:5f:
                    55:ca:fd:a9:38:b1:06:c6:4f:88:49:58:f2:cb:2d:
                    f6:e2:ba:8b:ff:75:f3:86:de:2b:ed:43:2b:62:2b:
                    e1:10:af:93:a6:d5:2e:28:02:32:52:ee:3d:bd:f9:
                    24:7a:51:72:98:f8:df:1c:7b:7b:91:04:24:38:b1:
                    71:35:dd:a2:5f:7b:dd:c3:57:14:8d:32:af:ad:e8:
                    e3:ba:92:ab:26:80:65:e2:4f:2a:2f:26:2a:7e:25:
                    89:15
                Exponent: 65537 (0x10001)
        X509v3 extensions:
            X509v3 Key Usage: 
                Digital Signature, Key Encipherment
            X509v3 Basic Constraints: 
                CA:FALSE
            Netscape Cert Type: 
                SSL Server
            Netscape Comment: 
                OpenSSL Generated Server Certificate
            X509v3 Subject Key Identifier: 
                DD:87:F0:2B:07:BA:89:C4:62:7F:03:59:C1:61:D5:3E:EF:52:C6:C0
            X509v3 Authority Key Identifier: 
                keyid:F4:A7:C0:CC:91:46:AF:64:F3:91:F2:27:F8:C8:B2:6F:8A:87:32:73
                DirName:/C=DE/ST=Hessen/O=privacyidea/CN=CA001
                serial:FB:C8:EB:AC:83:CD:12:07

            X509v3 Extended Key Usage: 
                TLS Web Server Authentication
    Signature Algorithm: sha256WithRSAEncryption
         3f:37:86:f6:d2:52:ac:81:f0:ae:e3:82:00:eb:17:93:0a:08:
         a4:5b:fc:4c:38:d4:9e:49:5a:b3:4e:31:4a:ae:ea:9b:a0:fe:
         87:a4:5f:7a:e2:e6:9e:f6:c4:9c:2d:34:dd:4c:ec:b0:fb:70:
         ae:fd:f4:4e:5e:73:89:be:c7:6d:e4:4e:74:ac:0c:f0:17:eb:
         59:0f:ab:01:51:7b:bb:5f:cd:98:5e:c4:7f:ba:31:be:78:66:
         7a:c6:1f:16:55:a6:e9:ca:2b:6a:9c:27:39:1e:03:b9:73:21:
         4c:7e:8b:fb:07:63:f0:97:84:56:af:94:b9:58:8b:a9:c3:c4:
         01:57:91:41:8b:b5:54:b8:5a:a4:6f:33:fa:bb:54:5e:02:b3:
         75:61:8d:df:ed:2c:f8:cb:bc:f0:62:e7:09:c1:83:15:7f:a9:
         f4:d1:fe:13:44:d9:cc:f0:28:57:45:0e:32:f0:02:86:22:68:
         4a:5f:79:71:4b:59:ef:5c:76:64:f4:3a:a7:ba:20:4d:de:f8:
         12:83:84:65:de:c3:4c:4f:bb:40:4a:8d:07:0a:cb:d6:b8:75:
         87:62:48:89:72:a7:d8:32:41:bd:c1:b5:45:9a:77:c2:f1:15:
         0f:de:44:82:95:f1:66:ea:9a:93:3c:ca:fe:43:a8:1b:68:c3:
         51:70:85:3c
-----BEGIN CERTIFICATE-----
MIIEIjCCAwqgAwIBAgIEEAAA3jANBgkqhkiG9w0BAQsFADBEMQswCQYDVQQGEwJE
RTEPMA0GA1UECAwGSGVzc2VuMRQwEgYDVQQKDAtwcml2YWN5aWRlYTEOMAwGA1UE
AwwFQ0EwMDEwHhcNMTkwNTIzMTQyNDExWhcNMjAwNTIyMTQyNDExWjBQMQ8wDQYD
VQQLDAZyZWFsbTExEjAQBgNVBAMMCWNvcm5lbGl1czEpMCcGCSqGSIb3DQEJARYa
dXNlckBsb2NhbGhvc3QubG9jYWxkb21haW4wggEiMA0GCSqGSIb3DQEBAQUAA4IB
DwAwggEKAoIBAQCzRYDVw3iGw4CCgdMye94lt/4l6TwTloYp8kElqTkOMOm+dQj0
1gncx9GSLFIABSdnyhXF1CT3TNf/NFCOIrgsu5L1gZbxPyI/XHlUYzwRQj/1sDai
WpaAaWzt35pMC89ZHfwB2vG/+/d6oLIW2mFtD6w+OiV0a2G36x+4yecfdv0ccXlX
bff+xT6qDuHqU++wZlRJhh6zl39MFius9v0umx8AX1XK/ak4sQbGT4hJWPLLLfbi
uov/dfOG3ivtQytiK+EQr5Om1S4oAjJS7j29+SR6UXKY+N8ce3uRBCQ4sXE13aJf
e93DVxSNMq+t6OO6kqsmgGXiTyovJip+JYkVAgMBAAGjggEOMIIBCjALBgNVHQ8E
BAMCBaAwCQYDVR0TBAIwADARBglghkgBhvhCAQEEBAMCBkAwMwYJYIZIAYb4QgEN
BCYWJE9wZW5TU0wgR2VuZXJhdGVkIFNlcnZlciBDZXJ0aWZpY2F0ZTAdBgNVHQ4E
FgQU3YfwKwe6icRifwNZwWHVPu9SxsAwdAYDVR0jBG0wa4AU9KfAzJFGr2TzkfIn
+Miyb4qHMnOhSKRGMEQxCzAJBgNVBAYTAkRFMQ8wDQYDVQQIDAZIZXNzZW4xFDAS
BgNVBAoMC3ByaXZhY3lpZGVhMQ4wDAYDVQQDDAVDQTAwMYIJAPvI66yDzRIHMBMG
A1UdJQQMMAoGCCsGAQUFBwMBMA0GCSqGSIb3DQEBCwUAA4IBAQA/N4b20lKsgfCu
44IA6xeTCgikW/xMONSeSVqzTjFKruqboP6HpF964uae9sScLTTdTOyw+3Cu/fRO
XnOJvsdt5E50rAzwF+tZD6sBUXu7X82YXsR/ujG+eGZ6xh8WVabpyitqnCc5HgO5
cyFMfov7B2Pwl4RWr5S5WIupw8QBV5FBi7VUuFqkbzP6u1ReArN1YY3f7Sz4y7zw
YucJwYMVf6n00f4TRNnM8ChXRQ4y8AKGImhKX3lxS1nvXHZk9DqnuiBN3vgSg4Rl
3sNMT7tASo0HCsvWuHWHYkiJcqfYMkG9wbVFmnfC8RUP3kSClfFm6pqTPMr+Q6gb
aMNRcIU8
-----END CERTIFICATE-----
