Certificate:
    Data:
        Version: 3 (0x2)
        Serial Number: 268435665 (0x100000d1)
    Signature Algorithm: sha256WithRSAEncryption
        Issuer: C=DE, ST=Hessen, O=privacyidea, CN=CA001
        Validity
            Not Before: Jun 14 15:32:38 2019 GMT
            Not After : Jun 13 15:32:38 2020 GMT
        Subject: C=DE, ST=Hessen, O=privacyidea, CN=requester.localdomain
        Subject Public Key Info:
            Public Key Algorithm: rsaEncryption
                Public-Key: (2048 bit)
                Modulus:
                    00:cd:be:14:4f:fa:ce:01:3f:42:22:1b:1d:9c:af:
                    dd:92:d2:7f:db:6c:b7:3e:39:43:43:6b:13:03:f1:
                    05:f4:07:74:bc:76:69:28:0b:af:19:8e:d7:fc:e3:
                    cd:c6:58:f2:ca:7f:08:6d:53:fc:07:02:44:24:c6:
                    b4:34:4c:8c:04:fe:33:0e:40:e2:20:ba:02:73:5a:
                    f7:f5:4f:63:6e:cc:c6:b6:df:54:1d:37:39:7d:51:
                    36:26:5f:bd:dc:3f:a8:8b:6b:a2:ae:b6:9d:d6:21:
                    e7:df:41:b8:7a:28:2a:68:48:ca:a8:2d:ed:e1:e9:
                    46:5e:5a:72:6d:b4:84:38:87:91:fd:94:11:0b:28:
                    84:c6:c2:2f:2a:fb:01:f9:36:7a:09:75:d1:33:88:
                    3c:73:41:5b:c8:bf:94:89:70:a1:f0:c0:b9:2e:50:
                    53:1e:b1:17:64:69:f4:2d:81:e0:a9:0d:0e:32:e9:
                    ba:55:8a:85:f1:1b:6f:49:79:b4:7f:88:c3:0d:3e:
                    54:88:9b:3d:1f:38:8c:04:f3:ee:6a:63:2b:f5:c6:
                    db:b4:83:aa:c4:78:41:3a:7d:4b:e1:c8:3e:71:ca:
                    1b:61:59:ea:c6:c4:ca:32:5e:c9:e9:bf:12:29:e6:
                    c6:c3:63:fe:a0:55:da:7a:f1:60:98:4d:26:ed:fa:
                    70:2d
                Exponent: 65537 (0x10001)
        X509v3 extensions:
            X509v3 Key Usage: 
                Digital Signature, Key Encipherment
            X509v3 Basic Constraints: 
                CA:FALSE
            Netscape Cert Type: 
                SSL Server
            Netscape Comment: 
                OpenSSL Generated Server Certificate
            X509v3 Subject Key Identifier: 
                53:3F:ED:5D:09:07:B3:65:7B:AB:45:C9:24:5B:09:77:80:0A:96:ED
            X509v3 Authority Key Identifier: 
                keyid:F4:A7:C0:CC:91:46:AF:64:F3:91:F2:27:F8:C8:B2:6F:8A:87:32:73
                DirName:/C=DE/ST=Hessen/O=privacyidea/CN=CA001
                serial:FB:C8:EB:AC:83:CD:12:07

            X509v3 Extended Key Usage: 
                TLS Web Server Authentication
    Signature Algorithm: sha256WithRSAEncryption
         11:87:56:3b:1a:1f:ba:eb:d2:b3:90:84:39:37:58:cb:56:e7:
         40:cd:c5:22:e1:25:61:71:76:6c:2f:b2:97:2c:49:86:d5:21:
         e1:77:5a:7e:70:12:7b:11:2b:10:bc:25:f6:34:f6:03:55:7b:
         69:a1:b6:f4:77:10:e4:8b:3b:73:fd:b8:a5:38:39:1f:8b:98:
         da:fb:c6:e2:86:bf:1e:68:9b:7e:6e:7e:ce:92:ac:4a:43:25:
         64:ae:4e:6b:e1:a5:03:30:7e:90:7c:ec:fe:ea:19:73:60:a6:
         e6:07:65:9f:b1:9f:79:12:d2:33:4c:bf:49:9b:da:0c:a8:8b:
         41:ac:4f:6f:18:df:54:e2:85:89:e8:5d:6d:03:40:0d:44:a1:
         93:34:d7:3b:4e:49:c7:ea:ef:33:71:4e:9f:bc:13:3e:30:3a:
         3c:fc:a3:ff:2c:f5:95:9e:77:53:62:60:ec:be:f1:72:ac:00:
         28:db:9b:20:da:f3:b3:b0:08:ed:8c:d5:51:ff:44:2b:a7:73:
         3e:50:4d:c3:2d:dc:ac:5a:c3:07:97:3e:09:cd:43:ba:c7:9f:
         ca:22:78:69:f4:0d:fc:55:d2:e7:6d:34:9e:af:6d:da:c1:68:
         09:bf:e2:6e:27:b6:7f:74:8b:65:b2:3a:f8:55:82:ad:7e:53:
         b3:7a:40:1a
-----BEGIN CERTIFICATE-----
MIIEJjCCAw6gAwIBAgIEEAAA0TANBgkqhkiG9w0BAQsFADBEMQswCQYDVQQGEwJE
RTEPMA0GA1UECAwGSGVzc2VuMRQwEgYDVQQKDAtwcml2YWN5aWRlYTEOMAwGA1UE
AwwFQ0EwMDEwHhcNMTkwNjE0MTUzMjM4WhcNMjAwNjEzMTUzMjM4WjBUMQswCQYD
VQQGEwJERTEPMA0GA1UECAwGSGVzc2VuMRQwEgYDVQQKDAtwcml2YWN5aWRlYTEe
MBwGA1UEAwwVcmVxdWVzdGVyLmxvY2FsZG9tYWluMIIBIjANBgkqhkiG9w0BAQEF
AAOCAQ8AMIIBCgKCAQEAzb4UT/rOAT9CIhsdnK/dktJ/22y3PjlDQ2sTA/EF9Ad0
vHZpKAuvGY7X/OPNxljyyn8IbVP8BwJEJMa0NEyMBP4zDkDiILoCc1r39U9jbszG
tt9UHTc5fVE2Jl+93D+oi2uirrad1iHn30G4eigqaEjKqC3t4elGXlpybbSEOIeR
/ZQRCyiExsIvKvsB+TZ6CXXRM4g8c0FbyL+UiXCh8MC5LlBTHrEXZGn0LYHgqQ0O
Mum6VYqF8RtvSXm0f4jDDT5UiJs9HziMBPPuamMr9cbbtIOqxHhBOn1L4cg+ccob
YVnqxsTKMl7J6b8SKebGw2P+oFXaevFgmE0m7fpwLQIDAQABo4IBDjCCAQowCwYD
VR0PBAQDAgWgMAkGA1UdEwQCMAAwEQYJYIZIAYb4QgEBBAQDAgZAMDMGCWCGSAGG
+EIBDQQmFiRPcGVuU1NMIEdlbmVyYXRlZCBTZXJ2ZXIgQ2VydGlmaWNhdGUwHQYD
VR0OBBYEFFM/7V0JB7Nle6tFySRbCXeACpbtMHQGA1UdIwRtMGuAFPSnwMyRRq9k
85HyJ/jIsm+KhzJzoUikRjBEMQswCQYDVQQGEwJERTEPMA0GA1UECAwGSGVzc2Vu
MRQwEgYDVQQKDAtwcml2YWN5aWRlYTEOMAwGA1UEAwwFQ0EwMDGCCQD7yOusg80S
BzATBgNVHSUEDDAKBggrBgEFBQcDATANBgkqhkiG9w0BAQsFAAOCAQEAEYdWOxof
uuvSs5CEOTdYy1bnQM3FIuElYXF2bC+ylyxJhtUh4XdafnASexErELwl9jT2A1V7
aaG29HcQ5Is7c/24pTg5H4uY2vvG4oa/Hmibfm5+zpKsSkMlZK5Oa+GlAzB+kHzs
/uoZc2Cm5gdln7GfeRLSM0y/SZvaDKiLQaxPbxjfVOKFiehdbQNADUShkzTXO05J
x+rvM3FOn7wTPjA6PPyj/yz1lZ53U2Jg7L7xcqwAKNubINrzs7AI7YzVUf9EK6dz
PlBNwy3crFrDB5c+Cc1DusefyiJ4afQN/FXS5200nq9t2sFoCb/ibie2f3SLZbI6
+FWCrX5Ts3pAGg==
-----END CERTIFICATE-----
