Certificate:
    Data:
        Version: 3 (0x2)
        Serial Number: 268435689 (0x100000e9)
    Signature Algorithm: sha256WithRSAEncryption
        Issuer: C=DE, ST=Hessen, O=privacyidea, CN=CA001
        Validity
            Not Before: Apr 16 14:33:24 2019 GMT
            Not After : Apr 15 14:33:24 2020 GMT
        Subject: C=DE, ST=Hessen, O=privacyidea, CN=usercert
        Subject Public Key Info:
            Public Key Algorithm: rsaEncryption
                Public-Key: (2048 bit)
                Modulus:
                    00:dc:2f:d1:5f:29:97:d4:7c:c3:53:c8:30:bd:4b:
                    67:70:2c:24:6b:b8:5e:eb:21:7a:48:12:56:7c:81:
                    5c:48:75:b6:68:eb:f6:f2:98:4e:50:51:d1:7f:6c:
                    73:f3:0a:a7:ae:be:48:5e:e5:d6:e1:d9:2a:7c:32:
                    6e:4e:fd:08:f6:5a:54:49:23:73:c3:b9:07:18:d1:
                    ef:b3:ac:f8:8a:dc:94:96:a4:90:3a:8e:74:df:e6:
                    0d:37:1b:bd:5b:b7:25:1a:56:39:da:6f:91:aa:5e:
                    1c:74:f3:f9:7c:14:01:83:12:65:76:c7:bb:fe:36:
                    5b:95:e9:72:65:83:ed:3e:98:30:71:fa:87:dd:a3:
                    36:5a:30:03:2e:26:e0:61:d1:bf:02:3f:b6:06:1f:
                    4a:89:28:1c:5c:a2:ff:4e:be:94:e6:8c:e0:da:82:
                    f1:9d:29:32:48:30:73:b4:04:f6:42:1e:be:f7:e2:
                    32:32:27:3c:9d:89:2f:70:3e:85:9a:6f:5c:c5:09:
                    c0:8c:32:2f:72:22:c9:d2:95:1f:b6:ac:72:60:72:
                    b7:82:4d:6b:ce:5b:e3:00:d0:d2:2f:58:c6:e0:10:
                    e5:51:ca:4d:3b:2e:e6:7e:ab:84:d6:56:f1:93:35:
                    a0:93:64:26:81:75:2f:91:b5:16:06:38:0b:db:cc:
                    2d:07
                Exponent: 65537 (0x10001)
        X509v3 extensions:
            X509v3 Key Usage: 
                Digital Signature, Key Encipherment
            X509v3 Basic Constraints: 
                CA:FALSE
            Netscape Cert Type: 
                SSL Server
            Netscape Comment: 
                OpenSSL Generated Server Certificate
            X509v3 Subject Key Identifier: 
                FC:14:D1:F0:4B:8D:00:90:F2:F5:B8:71:9E:4E:97:C3:92:54:AD:0B
            X509v3 Authority Key Identifier: 
                keyid:F4:A7:C0:CC:91:46:AF:64:F3:91:F2:27:F8:C8:B2:6F:8A:87:32:73
                DirName:/C=DE/ST=Hessen/O=privacyidea/CN=CA001
                serial:FB:C8:EB:AC:83:CD:12:07

            X509v3 Extended Key Usage: 
                TLS Web Server Authentication
    Signature Algorithm: sha256WithRSAEncryption
         23:65:b1:e1:cd:e5:cb:fd:85:76:ba:4c:e5:3d:65:ce:0e:e0:
         aa:bb:18:64:57:3d:40:e7:38:bf:8f:86:3e:70:14:27:ff:b9:
         62:6d:61:7a:a8:86:6f:ac:13:d4:0c:ef:5d:32:52:d7:fc:de:
         4d:e2:4b:73:1a:49:51:43:82:bb:5d:94:9a:77:e6:8b:19:84:
         78:77:b9:ec:ed:79:40:21:15:b8:07:61:ff:c7:11:40:59:36:
         5e:e4:15:4a:13:2c:5e:e7:95:a9:79:4b:e6:62:d8:d7:26:4f:
         ae:7c:5a:70:b0:ed:98:02:9b:0e:a1:5e:b5:37:e5:98:8a:20:
         6d:d3:a4:17:46:e0:69:f6:ab:07:d8:ba:4b:e8:6b:f3:7d:75:
         98:81:4a:cf:7c:f4:e1:b6:98:84:e6:8f:cb:a4:74:73:00:21:
         76:80:56:1a:ff:f9:81:c3:18:36:c8:06:bf:88:c9:64:1a:4e:
         70:70:01:fb:10:ba:b9:b7:41:40:bf:6d:17:a3:d9:af:19:52:
         cb:fb:0b:dd:6a:b8:90:b1:f6:fd:6c:ef:24:2b:17:59:c0:4e:
         2c:45:fa:63:f9:4c:6b:44:54:b2:53:ae:c9:58:19:ce:86:6d:
         74:b7:9d:95:e3:de:33:6d:eb:86:45:46:c6:d8:5d:13:ba:3a:
         f7:20:93:b2
-----BEGIN CERTIFICATE-----
MIIEGTCCAwGgAwIBAgIEEAAA6TANBgkqhkiG9w0BAQsFADBEMQswCQYDVQQGEwJE
RTEPMA0GA1UECAwGSGVzc2VuMRQwEgYDVQQKDAtwcml2YWN5aWRlYTEOMAwGA1UE
AwwFQ0EwMDEwHhcNMTkwNDE2MTQzMzI0WhcNMjAwNDE1MTQzMzI0WjBHMQswCQYD
VQQGEwJERTEPMA0GA1UECAwGSGVzc2VuMRQwEgYDVQQKDAtwcml2YWN5aWRlYTER
MA8GA1UEAwwIdXNlcmNlcnQwggEiMA0GCSqGSIb3DQEBAQUAA4IBDwAwggEKAoIB
AQDcL9FfKZfUfMNTyDC9S2dwLCRruF7rIXpIElZ8gVxIdbZo6/bymE5QUdF/bHPz
Cqeuvkhe5dbh2Sp8Mm5O/Qj2WlRJI3PDuQcY0e+zrPiK3JSWpJA6jnTf5g03G71b
tyUaVjnab5GqXhx08/l8FAGDEmV2x7v+NluV6XJlg+0+mDBx+ofdozZaMAMuJuBh
0b8CP7YGH0qJKBxcov9OvpTmjODagvGdKTJIMHO0BPZCHr734jIyJzydiS9wPoWa
b1zFCcCMMi9yIsnSlR+2rHJgcreCTWvOW+MA0NIvWMbgEOVRyk07LuZ+q4TWVvGT
NaCTZCaBdS+RtRYGOAvbzC0HAgMBAAGjggEOMIIBCjALBgNVHQ8EBAMCBaAwCQYD
VR0TBAIwADARBglghkgBhvhCAQEEBAMCBkAwMwYJYIZIAYb4QgENBCYWJE9wZW5T
U0wgR2VuZXJhdGVkIFNlcnZlciBDZXJ0aWZpY2F0ZTAdBgNVHQ4EFgQU/BTR8EuN
AJDy9bhxnk6Xw5JUrQswdAYDVR0jBG0wa4AU9KfAzJFGr2TzkfIn+Miyb4qHMnOh
SKRGMEQxCzAJBgNVBAYTAkRFMQ8wDQYDVQQIDAZIZXNzZW4xFDASBgNVBAoMC3By
aXZhY3lpZGVhMQ4wDAYDVQQDDAVDQTAwMYIJAPvI66yDzRIHMBMGA1UdJQQMMAoG
CCsGAQUFBwMBMA0GCSqGSIb3DQEBCwUAA4IBAQAjZbHhzeXL/YV2ukzlPWXODuCq
uxhkVz1A5zi/j4Y+cBQn/7libWF6qIZvrBPUDO9dMlLX/N5N4ktzGklRQ4K7XZSa
d+aLGYR4d7ns7XlAIRW4B2H/xxFAWTZe5BVKEyxe55WpeUvmYtjXJk+ufFpwsO2Y
ApsOoV61N+WYiiBt06QXRuBp9qsH2LpL6GvzfXWYgUrPfPThtpiE5o/LpHRzACF2
gFYa//mBwxg2yAa/iMlkGk5wcAH7ELq5t0FAv20Xo9mvGVLL+wvdariQsfb9bO8k
KxdZwE4sRfpj+UxrRFSyU67JWBnOhm10t52V494zbeuGRUbG2F0Tujr3IJOy
-----END CERTIFICATE-----
