Certificate:
    Data:
        Version: 3 (0x2)
        Serial Number: 268435694 (0x100000ee)
    Signature Algorithm: sha256WithRSAEncryption
        Issuer: C=DE, ST=Hessen, O=privacyidea, CN=CA001
        Validity
            Not Before: Apr 16 14:36:52 2019 GMT
            Not After : Apr 15 14:36:52 2020 GMT
        Subject: CN=selfservice,CN=user,O=realm1/emailAddress=meine
        Subject Public Key Info:
            Public Key Algorithm: rsaEncryption
                Public-Key: (2048 bit)
                Modulus:
                    00:cf:3c:d4:33:0e:12:c4:e6:da:cd:b6:56:a1:1c:
                    26:bb:26:1c:8a:4a:73:a8:58:8a:b6:1e:b3:8b:99:
                    d2:1d:07:c2:92:89:79:c0:69:d8:c8:df:28:61:98:
                    1e:b3:fe:ae:2b:bd:78:a9:f7:6e:47:dc:a3:a0:16:
                    8c:85:02:c1:4e:92:fd:72:6e:f0:c8:03:29:9b:b8:
                    00:6e:c0:83:95:c8:34:20:36:9c:b3:e5:e4:e6:76:
                    73:a3:1a:ad:40:96:e0:53:54:00:ec:76:79:9a:c6:
                    0d:7e:b6:bd:29:ec:83:f3:cb:89:a4:cb:6c:00:ba:
                    0c:c5:78:0f:ff:69:b8:94:f4:04:70:43:3f:d8:9e:
                    d7:a7:fb:5d:ce:75:8e:da:e7:c4:07:b1:9d:de:6f:
                    88:4b:b6:4d:9a:cf:f9:bc:fa:9f:cd:32:6d:f6:3a:
                    0b:0d:23:42:78:ec:97:42:bf:0e:4d:60:56:e1:d3:
                    02:f2:19:cb:84:57:90:e5:70:a1:a2:83:35:86:e2:
                    da:86:9f:f9:8a:c4:79:b3:52:28:da:cb:bb:34:ca:
                    d3:da:91:4a:cf:8d:76:a2:b2:6b:9b:f9:96:fd:09:
                    2a:da:11:23:4d:f0:cb:d6:b2:b1:0e:12:6c:9a:19:
                    65:98:87:ca:e4:ee:24:ce:44:ac:90:8f:9d:1b:c5:
                    2a:9d
                Exponent: 65537 (0x10001)
        X509v3 extensions:
            X509v3 Key Usage: 
                Digital Signature, Key Encipherment
            X509v3 Basic Constraints: 
                CA:FALSE
            Netscape Cert Type: 
                SSL Server
            Netscape Comment: 
                OpenSSL Generated Server Certificate
            X509v3 Subject Key Identifier: 
                4D:07:90:AD:FF:1D:0D:E7:1A:DD:D6:2E:FA:BA:34:CB:AA:1F:24:C6
            X509v3 Authority Key Identifier: 
                keyid:F4:A7:C0:CC:91:46:AF:64:F3:91:F2:27:F8:C8:B2:6F:8A:87:32:73
                DirName:/C=DE/ST=Hessen/O=privacyidea/CN=CA001
                serial:FB:C8:EB:AC:83:CD:12:07

            X509v3 Extended Key Usage: 
                TLS Web Server Authentication
    Signature Algorithm: sha256WithRSAEncryption
         1b:e1:22:3a:23:d6:0d:5d:2f:ea:ec:f8:40:ca:3b:fe:ee:87:
         08:da:2c:35:ab:cc:b0:9f:09:da:b6:31:de:62:b2:91:ce:bf:
         94:29:3e:c2:8c:2a:c4:9f:c0:f2:d2:ca:88:ae:55:7e:ac:7f:
         19:46:15:f9:40:fe:8f:ac:70:ca:b0:0e:cb:a0:58:e8:88:2c:
         79:55:e9:b1:2e:0b:53:c4:cb:cc:a8:d6:af:8a:91:6a:b0:fd:
         45:dc:81:6b:97:39:7f:cd:cd:ce:df:75:86:70:d1:f4:ac:30:
         ac:bc:17:36:0c:1e:6a:d5:08:60:47:17:f0:f6:a5:1c:5c:21:
         27:7e:2f:02:41:b4:cb:64:d1:59:2c:6e:8c:bb:0c:20:35:8e:
         49:51:19:08:2e:76:8a:60:9c:5a:21:ab:4a:bd:8c:cd:1a:c1:
         4e:f1:70:a7:82:51:e6:c2:99:1d:cb:25:10:f7:c8:a5:c7:28:
         83:ed:33:ef:4d:4d:cc:2a:d1:b3:a7:0f:ea:7f:ca:ca:94:bd:
         ef:85:88:5d:e0:02:71:a3:80:20:ef:ad:41:f7:ed:d2:71:f0:
         44:43:e2:71:0d:bf:ad:85:ed:36:4a:26:57:ba:fc:fa:69:83:
         ce:15:7d:3e:24:fe:6a:d9:a8:9d:e6:f6:01:e6:90:cb:2a:6e:
         91:97:ed:47
-----BEGIN CERTIFICATE-----
MIIEDzCCAvegAwIBAgIEEAAA7jANBgkqhkiG9w0BAQsFADBEMQswCQYDVQQGEwJE
RTEPMA0GA1UECAwGSGVzc2VuMRQwEgYDVQQKDAtwcml2YWN5aWRlYTEOMAwGA1UE
AwwFQ0EwMDEwHhcNMTkwNDE2MTQzNjUyWhcNMjAwNDE1MTQzNjUyWjA9MSUwIwYD
VQQDDBxzZWxmc2VydmljZSxDTj11c2VyLE89cmVhbG0xMRQwEgYJKoZIhvcNAQkB
FgVtZWluZTCCASIwDQYJKoZIhvcNAQEBBQADggEPADCCAQoCggEBAM881DMOEsTm
2s22VqEcJrsmHIpKc6hYirYes4uZ0h0HwpKJecBp2MjfKGGYHrP+riu9eKn3bkfc
o6AWjIUCwU6S/XJu8MgDKZu4AG7Ag5XINCA2nLPl5OZ2c6MarUCW4FNUAOx2eZrG
DX62vSnsg/PLiaTLbAC6DMV4D/9puJT0BHBDP9ie16f7Xc51jtrnxAexnd5viEu2
TZrP+bz6n80ybfY6Cw0jQnjsl0K/Dk1gVuHTAvIZy4RXkOVwoaKDNYbi2oaf+YrE
ebNSKNrLuzTK09qRSs+NdqKya5v5lv0JKtoRI03wy9aysQ4SbJoZZZiHyuTuJM5E
rJCPnRvFKp0CAwEAAaOCAQ4wggEKMAsGA1UdDwQEAwIFoDAJBgNVHRMEAjAAMBEG
CWCGSAGG+EIBAQQEAwIGQDAzBglghkgBhvhCAQ0EJhYkT3BlblNTTCBHZW5lcmF0
ZWQgU2VydmVyIENlcnRpZmljYXRlMB0GA1UdDgQWBBRNB5Ct/x0N5xrd1i76ujTL
qh8kxjB0BgNVHSMEbTBrgBT0p8DMkUavZPOR8if4yLJviocyc6FIpEYwRDELMAkG
A1UEBhMCREUxDzANBgNVBAgMBkhlc3NlbjEUMBIGA1UECgwLcHJpdmFjeWlkZWEx
DjAMBgNVBAMMBUNBMDAxggkA+8jrrIPNEgcwEwYDVR0lBAwwCgYIKwYBBQUHAwEw
DQYJKoZIhvcNAQELBQADggEBABvhIjoj1g1dL+rs+EDKO/7uhwjaLDWrzLCfCdq2
Md5ispHOv5QpPsKMKsSfwPLSyoiuVX6sfxlGFflA/o+scMqwDsugWOiILHlV6bEu
C1PEy8yo1q+KkWqw/UXcgWuXOX/Nzc7fdYZw0fSsMKy8FzYMHmrVCGBHF/D2pRxc
ISd+LwJBtMtk0Vksboy7DCA1jklRGQgudopgnFohq0q9jM0awU7xcKeCUebCmR3L
JRD3yKXHKIPtM+9NTcwq0bOnD+p/ysqUve+FiF3gAnGjgCDvrUH37dJx8ERD4nEN
v62F7TZKJle6/Pppg84VfT4k/mrZqJ3m9gHmkMsqbpGX7Uc=
-----END CERTIFICATE-----
