Certificate:
    Data:
        Version: 3 (0x2)
        Serial Number: 268435704 (0x100000f8)
    Signature Algorithm: sha256WithRSAEncryption
        Issuer: C=DE, ST=Hessen, O=privacyidea, CN=CA001
        Validity
            Not Before: Jan  9 20:51:34 2019 GMT
            Not After : Jan  9 20:51:34 2020 GMT
        Subject: CN=Steve Test/emailAddress=steve@openssl.org
        Subject Public Key Info:
            Public Key Algorithm: rsaEncryption
                Public-Key: (2048 bit)
                Modulus:
                    00:d2:81:89:20:51:48:0f:73:f4:11:32:24:d5:1f:
                    1c:fd:5c:f5:b6:e6:c5:f0:52:81:dc:d2:af:66:4a:
                    7c:93:31:61:5c:af:d1:6d:06:70:03:60:7c:72:0c:
                    88:dd:49:cd:9e:02:6c:d2:5a:d7:53:0f:f3:da:be:
                    69:64:b5:0f:0c:00:e3:b3:50:47:a3:b3:9b:ba:13:
                    50:d6:58:5a:4b:ab:39:e0:11:ca:0a:27:67:03:78:
                    22:66:6d:92:1e:1b:5c:49:ae:e6:6b:d1:8e:3b:9d:
                    06:d3:c6:ac:4d:53:43:10:ab:e8:96:c1:87:82:97:
                    99:8f:20:d3:99:12:37:31:84:e1:8a:ff:29:03:5f:
                    22:90:3e:7f:9b:e0:20:c1:ad:dc:ae:4c:39:1a:31:
                    96:17:02:8c:b2:d9:b4:0d:20:12:9b:7d:86:54:fd:
                    33:fd:c1:2a:62:46:f8:60:96:cf:6e:01:6f:22:df:
                    13:47:e7:97:ec:05:72:23:a3:62:f8:fa:ef:ac:9c:
                    72:f0:37:cb:2f:37:cf:90:a8:27:51:86:c6:d7:78:
                    08:8f:7e:25:a2:15:70:a2:fb:1c:b6:15:5e:a0:97:
                    8b:81:4c:09:28:8a:27:3b:94:bc:71:db:5b:71:37:
                    9a:2b:16:e0:6f:b5:c9:f5:4b:4f:20:ba:65:cf:af:
                    ad:ad
                Exponent: 65537 (0x10001)
        X509v3 extensions:
            X509v3 Key Usage: 
                Digital Signature, Key Encipherment
            X509v3 Basic Constraints: 
                CA:FALSE
            Netscape Cert Type: 
                SSL Server
            Netscape Comment: 
                OpenSSL Generated Server Certificate
            X509v3 Subject Key Identifier: 
                E5:25:6D:3E:AF:0D:DD:3F:4C:F2:45:19:39:D5:14:DB:7E:9C:C0:AD
            X509v3 Authority Key Identifier: 
                keyid:F4:A7:C0:CC:91:46:AF:64:F3:91:F2:27:F8:C8:B2:6F:8A:87:32:73
                DirName:/C=DE/ST=Hessen/O=privacyidea/CN=CA001
                serial:FB:C8:EB:AC:83:CD:12:07

            X509v3 Extended Key Usage: 
                TLS Web Server Authentication
    Signature Algorithm: sha256WithRSAEncryption
         8c:54:1d:6c:13:cc:27:92:31:9e:89:f6:87:38:a9:08:d8:e0:
         29:ae:6d:5d:61:dd:3e:5c:bb:7f:ea:53:55:de:ed:5c:a7:92:
         1f:bb:50:16:1d:8c:dd:bf:aa:da:1f:21:8c:12:b9:ad:2b:81:
         37:62:3d:2e:f4:ae:2e:30:fe:77:e4:fe:1c:e6:f7:40:42:44:
         a7:b0:9b:31:ec:57:47:a8:63:ec:89:8b:e8:93:bb:e7:2a:c5:
         2f:87:05:22:49:1b:7c:c8:94:bb:5c:ac:b8:b6:3b:5c:2d:d0:
         09:6d:aa:74:9f:41:1d:92:f2:35:cf:37:94:ed:06:a4:36:fe:
         5d:ba:cc:2a:e5:92:85:2d:b2:ad:d2:1c:5b:ec:5a:c2:0b:65:
         79:c6:1f:dd:9a:c1:13:63:50:2f:ad:61:13:62:29:9e:ad:d0:
         42:b2:f2:8d:21:93:82:4a:e3:e2:35:c8:05:24:37:b2:41:44:
         3a:85:8b:76:c0:5c:d9:1a:ec:91:e2:95:81:5e:08:77:47:75:
         ed:ae:cf:19:b4:c6:da:b0:8c:eb:31:28:45:22:53:84:12:f3:
         eb:0c:51:64:87:88:35:8d:71:e6:0f:b8:b5:95:70:eb:a6:ec:
         73:0b:61:59:bf:8f:79:b4:34:ea:28:bd:c5:66:96:c8:a0:b3:
         18:9d:94:66
-----BEGIN CERTIFICATE-----
MIIECTCCAvGgAwIBAgIEEAAA+DANBgkqhkiG9w0BAQsFADBEMQswCQYDVQQGEwJE
RTEPMA0GA1UECAwGSGVzc2VuMRQwEgYDVQQKDAtwcml2YWN5aWRlYTEOMAwGA1UE
AwwFQ0EwMDEwHhcNMTkwMTA5MjA1MTM0WhcNMjAwMTA5MjA1MTM0WjA3MRMwEQYD
VQQDDApTdGV2ZSBUZXN0MSAwHgYJKoZIhvcNAQkBFhFzdGV2ZUBvcGVuc3NsLm9y
ZzCCASIwDQYJKoZIhvcNAQEBBQADggEPADCCAQoCggEBANKBiSBRSA9z9BEyJNUf
HP1c9bbmxfBSgdzSr2ZKfJMxYVyv0W0GcANgfHIMiN1JzZ4CbNJa11MP89q+aWS1
DwwA47NQR6Ozm7oTUNZYWkurOeARygonZwN4ImZtkh4bXEmu5mvRjjudBtPGrE1T
QxCr6JbBh4KXmY8g05kSNzGE4Yr/KQNfIpA+f5vgIMGt3K5MORoxlhcCjLLZtA0g
Ept9hlT9M/3BKmJG+GCWz24BbyLfE0fnl+wFciOjYvj676yccvA3yy83z5CoJ1GG
xtd4CI9+JaIVcKL7HLYVXqCXi4FMCSiKJzuUvHHbW3E3misW4G+1yfVLTyC6Zc+v
ra0CAwEAAaOCAQ4wggEKMAsGA1UdDwQEAwIFoDAJBgNVHRMEAjAAMBEGCWCGSAGG
+EIBAQQEAwIGQDAzBglghkgBhvhCAQ0EJhYkT3BlblNTTCBHZW5lcmF0ZWQgU2Vy
dmVyIENlcnRpZmljYXRlMB0GA1UdDgQWBBTlJW0+rw3dP0zyRRk51RTbfpzArTB0
BgNVHSMEbTBrgBT0p8DMkUavZPOR8if4yLJviocyc6FIpEYwRDELMAkGA1UEBhMC
REUxDzANBgNVBAgMBkhlc3NlbjEUMBIGA1UECgwLcHJpdmFjeWlkZWExDjAMBgNV
BAMMBUNBMDAxggkA+8jrrIPNEgcwEwYDVR0lBAwwCgYIKwYBBQUHAwEwDQYJKoZI
hvcNAQELBQADggEBAIxUHWwTzCeSMZ6J9oc4qQjY4CmubV1h3T5cu3/qU1Xe7Vyn
kh+7UBYdjN2/qtofIYwSua0rgTdiPS70ri4w/nfk/hzm90BCRKewmzHsV0eoY+yJ
i+iTu+cqxS+HBSJJG3zIlLtcrLi2O1wt0AltqnSfQR2S8jXPN5TtBqQ2/l26zCrl
koUtsq3SHFvsWsILZXnGH92awRNjUC+tYRNiKZ6t0EKy8o0hk4JK4+I1yAUkN7JB
RDqFi3bAXNka7JHilYFeCHdHde2uzxm0xtqwjOsxKEUiU4QS8+sMUWSHiDWNceYP
uLWVcOum7HMLYVm/j3m0NOoovcVmlsigsxidlGY=
-----END CERTIFICATE-----
