Certificate:
    Data:
        Version: 3 (0x2)
        Serial Number: 268435686 (0x100000e6)
    Signature Algorithm: sha256WithRSAEncryption
        Issuer: C=DE, ST=Hessen, O=privacyidea, CN=CA001
        Validity
            Not Before: Apr 16 08:36:03 2019 GMT
            Not After : Apr 15 08:36:03 2020 GMT
        Subject: CN=selfservice,CN=user,O=realm1/emailAddress=meine
        Subject Public Key Info:
            Public Key Algorithm: rsaEncryption
                Public-Key: (2048 bit)
                Modulus:
                    00:cf:3c:d4:33:0e:12:c4:e6:da:cd:b6:56:a1:1c:
                    26:bb:26:1c:8a:4a:73:a8:58:8a:b6:1e:b3:8b:99:
                    d2:1d:07:c2:92:89:79:c0:69:d8:c8:df:28:61:98:
                    1e:b3:fe:ae:2b:bd:78:a9:f7:6e:47:dc:a3:a0:16:
                    8c:85:02:c1:4e:92:fd:72:6e:f0:c8:03:29:9b:b8:
                    00:6e:c0:83:95:c8:34:20:36:9c:b3:e5:e4:e6:76:
                    73:a3:1a:ad:40:96:e0:53:54:00:ec:76:79:9a:c6:
                    0d:7e:b6:bd:29:ec:83:f3:cb:89:a4:cb:6c:00:ba:
                    0c:c5:78:0f:ff:69:b8:94:f4:04:70:43:3f:d8:9e:
                    d7:a7:fb:5d:ce:75:8e:da:e7:c4:07:b1:9d:de:6f:
                    88:4b:b6:4d:9a:cf:f9:bc:fa:9f:cd:32:6d:f6:3a:
                    0b:0d:23:42:78:ec:97:42:bf:0e:4d:60:56:e1:d3:
                    02:f2:19:cb:84:57:90:e5:70:a1:a2:83:35:86:e2:
                    da:86:9f:f9:8a:c4:79:b3:52:28:da:cb:bb:34:ca:
                    d3:da:91:4a:cf:8d:76:a2:b2:6b:9b:f9:96:fd:09:
                    2a:da:11:23:4d:f0:cb:d6:b2:b1:0e:12:6c:9a:19:
                    65:98:87:ca:e4:ee:24:ce:44:ac:90:8f:9d:1b:c5:
                    2a:9d
                Exponent: 65537 (0x10001)
        X509v3 extensions:
            X509v3 Key Usage: 
                Digital Signature, Key Encipherment
            X509v3 Basic Constraints: 
                CA:FALSE
            Netscape Cert Type: 
                SSL Server
            Netscape Comment: 
                OpenSSL Generated Server Certificate
            X509v3 Subject Key Identifier: 
                4D:07:90:AD:FF:1D:0D:E7:1A:DD:D6:2E:FA:BA:34:CB:AA:1F:24:C6
            X509v3 Authority Key Identifier: 
                keyid:F4:A7:C0:CC:91:46:AF:64:F3:91:F2:27:F8:C8:B2:6F:8A:87:32:73
                DirName:/C=DE/ST=Hessen/O=privacyidea/CN=CA001
                serial:FB:C8:EB:AC:83:CD:12:07

            X509v3 Extended Key Usage: 
                TLS Web Server Authentication
    Signature Algorithm: sha256WithRSAEncryption
         46:17:16:c8:47:1e:9b:7f:28:f6:3f:3e:3b:32:70:05:73:a4:
         6a:b0:bf:95:f9:bf:29:1c:30:55:fc:76:90:c0:3e:c5:fc:d8:
         8c:db:cb:0f:d6:d7:30:23:33:f3:00:72:12:c9:e9:6d:a1:96:
         b1:9c:c9:21:3c:39:94:36:18:c1:69:2d:53:4a:3a:1a:bd:85:
         a5:24:a9:79:fa:92:4a:f4:77:42:1d:79:f4:6d:4f:c5:19:db:
         10:4f:ca:48:d8:2d:d2:49:40:62:0b:31:e1:5f:63:74:a3:82:
         8c:6b:79:fd:18:04:29:b6:e3:df:4d:7d:be:81:b0:7f:1e:20:
         cf:66:0d:f8:c3:1d:9a:e0:01:fd:be:62:19:15:5b:55:c0:3d:
         9b:c4:39:c0:65:a3:c7:2f:d3:2b:b6:32:69:9a:d7:bc:2e:65:
         e8:55:09:bb:c3:3c:41:ee:35:1a:a7:73:14:94:ea:f3:15:2f:
         ae:e2:53:c5:9b:7c:a8:c5:a6:c2:8b:db:07:99:17:a5:14:9a:
         2c:f3:d1:09:04:93:58:c2:61:2b:c1:0d:7a:37:fc:a6:62:6c:
         3f:7c:4b:79:51:60:07:19:41:a0:3d:56:15:18:ce:0d:72:70:
         24:08:b3:fa:47:fc:da:9d:54:04:73:7e:9b:c9:bb:a1:b4:de:
         0d:e9:a2:9a
-----BEGIN CERTIFICATE-----
MIIEDzCCAvegAwIBAgIEEAAA5jANBgkqhkiG9w0BAQsFADBEMQswCQYDVQQGEwJE
RTEPMA0GA1UECAwGSGVzc2VuMRQwEgYDVQQKDAtwcml2YWN5aWRlYTEOMAwGA1UE
AwwFQ0EwMDEwHhcNMTkwNDE2MDgzNjAzWhcNMjAwNDE1MDgzNjAzWjA9MSUwIwYD
VQQDDBxzZWxmc2VydmljZSxDTj11c2VyLE89cmVhbG0xMRQwEgYJKoZIhvcNAQkB
FgVtZWluZTCCASIwDQYJKoZIhvcNAQEBBQADggEPADCCAQoCggEBAM881DMOEsTm
2s22VqEcJrsmHIpKc6hYirYes4uZ0h0HwpKJecBp2MjfKGGYHrP+riu9eKn3bkfc
o6AWjIUCwU6S/XJu8MgDKZu4AG7Ag5XINCA2nLPl5OZ2c6MarUCW4FNUAOx2eZrG
DX62vSnsg/PLiaTLbAC6DMV4D/9puJT0BHBDP9ie16f7Xc51jtrnxAexnd5viEu2
TZrP+bz6n80ybfY6Cw0jQnjsl0K/Dk1gVuHTAvIZy4RXkOVwoaKDNYbi2oaf+YrE
ebNSKNrLuzTK09qRSs+NdqKya5v5lv0JKtoRI03wy9aysQ4SbJoZZZiHyuTuJM5E
rJCPnRvFKp0CAwEAAaOCAQ4wggEKMAsGA1UdDwQEAwIFoDAJBgNVHRMEAjAAMBEG
CWCGSAGG+EIBAQQEAwIGQDAzBglghkgBhvhCAQ0EJhYkT3BlblNTTCBHZW5lcmF0
ZWQgU2VydmVyIENlcnRpZmljYXRlMB0GA1UdDgQWBBRNB5Ct/x0N5xrd1i76ujTL
qh8kxjB0BgNVHSMEbTBrgBT0p8DMkUavZPOR8if4yLJviocyc6FIpEYwRDELMAkG
A1UEBhMCREUxDzANBgNVBAgMBkhlc3NlbjEUMBIGA1UECgwLcHJpdmFjeWlkZWEx
DjAMBgNVBAMMBUNBMDAxggkA+8jrrIPNEgcwEwYDVR0lBAwwCgYIKwYBBQUHAwEw
DQYJKoZIhvcNAQELBQADggEBAEYXFshHHpt/KPY/PjsycAVzpGqwv5X5vykcMFX8
dpDAPsX82Izbyw/W1zAjM/MAchLJ6W2hlrGcySE8OZQ2GMFpLVNKOhq9haUkqXn6
kkr0d0IdefRtT8UZ2xBPykjYLdJJQGILMeFfY3Sjgoxref0YBCm2499Nfb6BsH8e
IM9mDfjDHZrgAf2+YhkVW1XAPZvEOcBlo8cv0yu2Mmma17wuZehVCbvDPEHuNRqn
cxSU6vMVL67iU8WbfKjFpsKL2weZF6UUmizz0QkEk1jCYSvBDXo3/KZibD98S3lR
YAcZQaA9VhUYzg1ycCQIs/pH/NqdVARzfpvJu6G03g3popo=
-----END CERTIFICATE-----
