Certificate:
    Data:
        Version: 3 (0x2)
        Serial Number: 268435672 (0x100000d8)
    Signature Algorithm: sha256WithRSAEncryption
        Issuer: C=DE, ST=Hessen, O=privacyidea, CN=CA001
        Validity
            Not Before: May 23 14:20:20 2019 GMT
            Not After : May 22 14:20:20 2020 GMT
        Subject: C=DE, ST=Hessen, O=privacyidea, CN=requester.localdomain
        Subject Public Key Info:
            Public Key Algorithm: rsaEncryption
                Public-Key: (2048 bit)
                Modulus:
                    00:cd:be:14:4f:fa:ce:01:3f:42:22:1b:1d:9c:af:
                    dd:92:d2:7f:db:6c:b7:3e:39:43:43:6b:13:03:f1:
                    05:f4:07:74:bc:76:69:28:0b:af:19:8e:d7:fc:e3:
                    cd:c6:58:f2:ca:7f:08:6d:53:fc:07:02:44:24:c6:
                    b4:34:4c:8c:04:fe:33:0e:40:e2:20:ba:02:73:5a:
                    f7:f5:4f:63:6e:cc:c6:b6:df:54:1d:37:39:7d:51:
                    36:26:5f:bd:dc:3f:a8:8b:6b:a2:ae:b6:9d:d6:21:
                    e7:df:41:b8:7a:28:2a:68:48:ca:a8:2d:ed:e1:e9:
                    46:5e:5a:72:6d:b4:84:38:87:91:fd:94:11:0b:28:
                    84:c6:c2:2f:2a:fb:01:f9:36:7a:09:75:d1:33:88:
                    3c:73:41:5b:c8:bf:94:89:70:a1:f0:c0:b9:2e:50:
                    53:1e:b1:17:64:69:f4:2d:81:e0:a9:0d:0e:32:e9:
                    ba:55:8a:85:f1:1b:6f:49:79:b4:7f:88:c3:0d:3e:
                    54:88:9b:3d:1f:38:8c:04:f3:ee:6a:63:2b:f5:c6:
                    db:b4:83:aa:c4:78:41:3a:7d:4b:e1:c8:3e:71:ca:
                    1b:61:59:ea:c6:c4:ca:32:5e:c9:e9:bf:12:29:e6:
                    c6:c3:63:fe:a0:55:da:7a:f1:60:98:4d:26:ed:fa:
                    70:2d
                Exponent: 65537 (0x10001)
        X509v3 extensions:
            X509v3 Key Usage: 
                Digital Signature, Key Encipherment
            X509v3 Basic Constraints: 
                CA:FALSE
            Netscape Cert Type: 
                SSL Server
            Netscape Comment: 
                OpenSSL Generated Server Certificate
            X509v3 Subject Key Identifier: 
                53:3F:ED:5D:09:07:B3:65:7B:AB:45:C9:24:5B:09:77:80:0A:96:ED
            X509v3 Authority Key Identifier: 
                keyid:F4:A7:C0:CC:91:46:AF:64:F3:91:F2:27:F8:C8:B2:6F:8A:87:32:73
                DirName:/C=DE/ST=Hessen/O=privacyidea/CN=CA001
                serial:FB:C8:EB:AC:83:CD:12:07

            X509v3 Extended Key Usage: 
                TLS Web Server Authentication
    Signature Algorithm: sha256WithRSAEncryption
         2b:09:85:3d:85:1f:71:33:09:53:04:d4:2a:39:bb:83:81:48:
         5d:2d:4b:28:21:2c:4e:5e:43:f3:ef:d7:f9:66:57:95:61:62:
         8d:31:df:bb:fc:db:8a:65:fe:db:34:a5:1b:75:4c:8f:e8:18:
         cf:c7:7a:3d:47:db:6c:3b:f4:55:ac:20:e6:a7:72:8c:03:55:
         0c:be:32:5b:bd:e0:06:4c:2e:d1:57:c3:b6:d2:78:f0:af:91:
         25:45:d2:80:f0:22:e8:0d:e7:bb:6a:47:a5:df:c1:a6:8a:12:
         6c:cf:9e:64:27:f5:02:99:0d:67:fc:06:9d:52:25:f6:84:01:
         f0:ea:03:53:fb:8b:cd:98:c6:af:6e:69:09:21:c5:23:5c:4f:
         87:6a:d4:8f:da:85:c4:bc:58:91:ad:bf:4c:bd:f3:ae:e1:41:
         7c:04:83:8f:66:88:4d:16:e3:ea:8c:db:94:e8:64:07:ea:63:
         0c:a8:5c:0f:b4:41:95:66:80:5c:bb:7c:98:43:75:b4:43:0b:
         d0:09:d2:23:6f:fe:fd:49:ca:c6:c7:52:cc:e1:99:53:49:ed:
         88:c6:c2:a2:1e:b3:3d:80:de:0f:0d:03:e8:61:6f:c2:3a:8f:
         47:94:f1:89:7f:a6:33:67:0b:2c:b6:45:97:2b:62:34:3f:f3:
         2a:e5:33:f9
-----BEGIN CERTIFICATE-----
MIIEJjCCAw6gAwIBAgIEEAAA2DANBgkqhkiG9w0BAQsFADBEMQswCQYDVQQGEwJE
RTEPMA0GA1UECAwGSGVzc2VuMRQwEgYDVQQKDAtwcml2YWN5aWRlYTEOMAwGA1UE
AwwFQ0EwMDEwHhcNMTkwNTIzMTQyMDIwWhcNMjAwNTIyMTQyMDIwWjBUMQswCQYD
VQQGEwJERTEPMA0GA1UECAwGSGVzc2VuMRQwEgYDVQQKDAtwcml2YWN5aWRlYTEe
MBwGA1UEAwwVcmVxdWVzdGVyLmxvY2FsZG9tYWluMIIBIjANBgkqhkiG9w0BAQEF
AAOCAQ8AMIIBCgKCAQEAzb4UT/rOAT9CIhsdnK/dktJ/22y3PjlDQ2sTA/EF9Ad0
vHZpKAuvGY7X/OPNxljyyn8IbVP8BwJEJMa0NEyMBP4zDkDiILoCc1r39U9jbszG
tt9UHTc5fVE2Jl+93D+oi2uirrad1iHn30G4eigqaEjKqC3t4elGXlpybbSEOIeR
/ZQRCyiExsIvKvsB+TZ6CXXRM4g8c0FbyL+UiXCh8MC5LlBTHrEXZGn0LYHgqQ0O
Mum6VYqF8RtvSXm0f4jDDT5UiJs9HziMBPPuamMr9cbbtIOqxHhBOn1L4cg+ccob
YVnqxsTKMl7J6b8SKebGw2P+oFXaevFgmE0m7fpwLQIDAQABo4IBDjCCAQowCwYD
VR0PBAQDAgWgMAkGA1UdEwQCMAAwEQYJYIZIAYb4QgEBBAQDAgZAMDMGCWCGSAGG
+EIBDQQmFiRPcGVuU1NMIEdlbmVyYXRlZCBTZXJ2ZXIgQ2VydGlmaWNhdGUwHQYD
VR0OBBYEFFM/7V0JB7Nle6tFySRbCXeACpbtMHQGA1UdIwRtMGuAFPSnwMyRRq9k
85HyJ/jIsm+KhzJzoUikRjBEMQswCQYDVQQGEwJERTEPMA0GA1UECAwGSGVzc2Vu
MRQwEgYDVQQKDAtwcml2YWN5aWRlYTEOMAwGA1UEAwwFQ0EwMDGCCQD7yOusg80S
BzATBgNVHSUEDDAKBggrBgEFBQcDATANBgkqhkiG9w0BAQsFAAOCAQEAKwmFPYUf
cTMJUwTUKjm7g4FIXS1LKCEsTl5D8+/X+WZXlWFijTHfu/zbimX+2zSlG3VMj+gY
z8d6PUfbbDv0Vawg5qdyjANVDL4yW73gBkwu0VfDttJ48K+RJUXSgPAi6A3nu2pH
pd/BpooSbM+eZCf1ApkNZ/wGnVIl9oQB8OoDU/uLzZjGr25pCSHFI1xPh2rUj9qF
xLxYka2/TL3zruFBfASDj2aITRbj6ozblOhkB+pjDKhcD7RBlWaAXLt8mEN1tEML
0AnSI2/+/UnKxsdSzOGZU0ntiMbCoh6zPYDeDw0D6GFvwjqPR5TxiX+mM2cLLLZF
lytiND/zKuUz+Q==
-----END CERTIFICATE-----
