Certificate:
    Data:
        Version: 3 (0x2)
        Serial Number: 268435695 (0x100000ef)
    Signature Algorithm: sha256WithRSAEncryption
        Issuer: C=DE, ST=Hessen, O=privacyidea, CN=CA001
        Validity
            Not Before: Feb  8 22:13:36 2019 GMT
            Not After : Feb  8 22:13:36 2020 GMT
        Subject: CN=selfservice,CN=user,O=realm1/emailAddress=meine
        Subject Public Key Info:
            Public Key Algorithm: rsaEncryption
                Public-Key: (2048 bit)
                Modulus:
                    00:cf:3c:d4:33:0e:12:c4:e6:da:cd:b6:56:a1:1c:
                    26:bb:26:1c:8a:4a:73:a8:58:8a:b6:1e:b3:8b:99:
                    d2:1d:07:c2:92:89:79:c0:69:d8:c8:df:28:61:98:
                    1e:b3:fe:ae:2b:bd:78:a9:f7:6e:47:dc:a3:a0:16:
                    8c:85:02:c1:4e:92:fd:72:6e:f0:c8:03:29:9b:b8:
                    00:6e:c0:83:95:c8:34:20:36:9c:b3:e5:e4:e6:76:
                    73:a3:1a:ad:40:96:e0:53:54:00:ec:76:79:9a:c6:
                    0d:7e:b6:bd:29:ec:83:f3:cb:89:a4:cb:6c:00:ba:
                    0c:c5:78:0f:ff:69:b8:94:f4:04:70:43:3f:d8:9e:
                    d7:a7:fb:5d:ce:75:8e:da:e7:c4:07:b1:9d:de:6f:
                    88:4b:b6:4d:9a:cf:f9:bc:fa:9f:cd:32:6d:f6:3a:
                    0b:0d:23:42:78:ec:97:42:bf:0e:4d:60:56:e1:d3:
                    02:f2:19:cb:84:57:90:e5:70:a1:a2:83:35:86:e2:
                    da:86:9f:f9:8a:c4:79:b3:52:28:da:cb:bb:34:ca:
                    d3:da:91:4a:cf:8d:76:a2:b2:6b:9b:f9:96:fd:09:
                    2a:da:11:23:4d:f0:cb:d6:b2:b1:0e:12:6c:9a:19:
                    65:98:87:ca:e4:ee:24:ce:44:ac:90:8f:9d:1b:c5:
                    2a:9d
                Exponent: 65537 (0x10001)
        X509v3 extensions:
            X509v3 Key Usage: 
                Digital Signature, Key Encipherment
            X509v3 Basic Constraints: 
                CA:FALSE
            Netscape Cert Type: 
                SSL Server
            Netscape Comment: 
                OpenSSL Generated Server Certificate
            X509v3 Subject Key Identifier: 
                4D:07:90:AD:FF:1D:0D:E7:1A:DD:D6:2E:FA:BA:34:CB:AA:1F:24:C6
            X509v3 Authority Key Identifier: 
                keyid:F4:A7:C0:CC:91:46:AF:64:F3:91:F2:27:F8:C8:B2:6F:8A:87:32:73
                DirName:/C=DE/ST=Hessen/O=privacyidea/CN=CA001
                serial:FB:C8:EB:AC:83:CD:12:07

            X509v3 Extended Key Usage: 
                TLS Web Server Authentication
    Signature Algorithm: sha256WithRSAEncryption
         19:5b:bd:51:f1:d8:ac:de:3e:af:5c:77:12:c1:92:fb:46:c4:
         1f:ef:f4:ed:99:a5:be:d7:08:c7:31:3d:39:5a:26:ef:e7:47:
         91:1b:eb:26:cb:f0:0f:1b:d6:ea:59:11:29:67:f6:3f:9c:ff:
         ce:1e:a4:df:74:af:bd:4e:61:20:27:a1:c9:99:bc:8c:cf:e7:
         34:97:96:01:9b:58:fe:ee:b1:41:02:cb:0f:e5:a0:1a:2e:3c:
         76:bd:2c:7a:34:c0:81:08:cf:d2:6b:ef:d0:23:3e:ca:8d:d0:
         d0:b3:a4:3f:9a:58:69:8b:ca:27:6f:93:21:c5:d1:63:8a:81:
         e3:ea:bb:26:56:0c:a7:a9:5f:9c:02:39:8c:92:38:6c:7e:24:
         52:30:2e:30:da:a4:b2:25:05:c1:3c:4d:1f:36:3a:2f:e0:d1:
         98:a6:46:31:fa:b2:00:cd:62:ef:f9:5d:b9:05:78:d2:4b:47:
         31:20:f4:ac:93:33:6e:22:78:b2:d5:e2:e5:8c:04:e7:ff:e6:
         1e:f4:cf:5d:7a:92:da:98:1a:37:a8:0e:cd:21:90:14:57:b6:
         44:ab:9f:2c:a2:62:7c:ce:bc:8a:7d:fd:86:35:b3:36:9d:f1:
         78:f6:01:5c:88:ee:a4:ec:bf:b8:10:57:9f:e7:87:48:65:d6:
         ab:74:69:30
-----BEGIN CERTIFICATE-----
MIIEDzCCAvegAwIBAgIEEAAA7zANBgkqhkiG9w0BAQsFADBEMQswCQYDVQQGEwJE
RTEPMA0GA1UECAwGSGVzc2VuMRQwEgYDVQQKDAtwcml2YWN5aWRlYTEOMAwGA1UE
AwwFQ0EwMDEwHhcNMTkwMjA4MjIxMzM2WhcNMjAwMjA4MjIxMzM2WjA9MSUwIwYD
VQQDDBxzZWxmc2VydmljZSxDTj11c2VyLE89cmVhbG0xMRQwEgYJKoZIhvcNAQkB
FgVtZWluZTCCASIwDQYJKoZIhvcNAQEBBQADggEPADCCAQoCggEBAM881DMOEsTm
2s22VqEcJrsmHIpKc6hYirYes4uZ0h0HwpKJecBp2MjfKGGYHrP+riu9eKn3bkfc
o6AWjIUCwU6S/XJu8MgDKZu4AG7Ag5XINCA2nLPl5OZ2c6MarUCW4FNUAOx2eZrG
DX62vSnsg/PLiaTLbAC6DMV4D/9puJT0BHBDP9ie16f7Xc51jtrnxAexnd5viEu2
TZrP+bz6n80ybfY6Cw0jQnjsl0K/Dk1gVuHTAvIZy4RXkOVwoaKDNYbi2oaf+YrE
ebNSKNrLuzTK09qRSs+NdqKya5v5lv0JKtoRI03wy9aysQ4SbJoZZZiHyuTuJM5E
rJCPnRvFKp0CAwEAAaOCAQ4wggEKMAsGA1UdDwQEAwIFoDAJBgNVHRMEAjAAMBEG
CWCGSAGG+EIBAQQEAwIGQDAzBglghkgBhvhCAQ0EJhYkT3BlblNTTCBHZW5lcmF0
ZWQgU2VydmVyIENlcnRpZmljYXRlMB0GA1UdDgQWBBRNB5Ct/x0N5xrd1i76ujTL
qh8kxjB0BgNVHSMEbTBrgBT0p8DMkUavZPOR8if4yLJviocyc6FIpEYwRDELMAkG
A1UEBhMCREUxDzANBgNVBAgMBkhlc3NlbjEUMBIGA1UECgwLcHJpdmFjeWlkZWEx
DjAMBgNVBAMMBUNBMDAxggkA+8jrrIPNEgcwEwYDVR0lBAwwCgYIKwYBBQUHAwEw
DQYJKoZIhvcNAQELBQADggEBABlbvVHx2KzePq9cdxLBkvtGxB/v9O2Zpb7XCMcx
PTlaJu/nR5Eb6ybL8A8b1upZESln9j+c/84epN90r71OYSAnocmZvIzP5zSXlgGb
WP7usUECyw/loBouPHa9LHo0wIEIz9Jr79AjPsqN0NCzpD+aWGmLyidvkyHF0WOK
gePquyZWDKepX5wCOYySOGx+JFIwLjDapLIlBcE8TR82Oi/g0ZimRjH6sgDNYu/5
XbkFeNJLRzEg9KyTM24ieLLV4uWMBOf/5h70z116ktqYGjeoDs0hkBRXtkSrnyyi
YnzOvIp9/YY1szad8Xj2AVyI7qTsv7gQV5/nh0hl1qt0aTA=
-----END CERTIFICATE-----
