Certificate:
    Data:
        Version: 3 (0x2)
        Serial Number: 268435674 (0x100000da)
    Signature Algorithm: sha256WithRSAEncryption
        Issuer: C=DE, ST=Hessen, O=privacyidea, CN=CA001
        Validity
            Not Before: May 23 14:21:59 2019 GMT
            Not After : May 22 14:21:59 2020 GMT
        Subject: C=DE, ST=Hessen, O=privacyidea, CN=usercert
        Subject Public Key Info:
            Public Key Algorithm: rsaEncryption
                Public-Key: (2048 bit)
                Modulus:
                    00:dc:2f:d1:5f:29:97:d4:7c:c3:53:c8:30:bd:4b:
                    67:70:2c:24:6b:b8:5e:eb:21:7a:48:12:56:7c:81:
                    5c:48:75:b6:68:eb:f6:f2:98:4e:50:51:d1:7f:6c:
                    73:f3:0a:a7:ae:be:48:5e:e5:d6:e1:d9:2a:7c:32:
                    6e:4e:fd:08:f6:5a:54:49:23:73:c3:b9:07:18:d1:
                    ef:b3:ac:f8:8a:dc:94:96:a4:90:3a:8e:74:df:e6:
                    0d:37:1b:bd:5b:b7:25:1a:56:39:da:6f:91:aa:5e:
                    1c:74:f3:f9:7c:14:01:83:12:65:76:c7:bb:fe:36:
                    5b:95:e9:72:65:83:ed:3e:98:30:71:fa:87:dd:a3:
                    36:5a:30:03:2e:26:e0:61:d1:bf:02:3f:b6:06:1f:
                    4a:89:28:1c:5c:a2:ff:4e:be:94:e6:8c:e0:da:82:
                    f1:9d:29:32:48:30:73:b4:04:f6:42:1e:be:f7:e2:
                    32:32:27:3c:9d:89:2f:70:3e:85:9a:6f:5c:c5:09:
                    c0:8c:32:2f:72:22:c9:d2:95:1f:b6:ac:72:60:72:
                    b7:82:4d:6b:ce:5b:e3:00:d0:d2:2f:58:c6:e0:10:
                    e5:51:ca:4d:3b:2e:e6:7e:ab:84:d6:56:f1:93:35:
                    a0:93:64:26:81:75:2f:91:b5:16:06:38:0b:db:cc:
                    2d:07
                Exponent: 65537 (0x10001)
        X509v3 extensions:
            X509v3 Key Usage: 
                Digital Signature, Key Encipherment
            X509v3 Basic Constraints: 
                CA:FALSE
            Netscape Cert Type: 
                SSL Server
            Netscape Comment: 
                OpenSSL Generated Server Certificate
            X509v3 Subject Key Identifier: 
                FC:14:D1:F0:4B:8D:00:90:F2:F5:B8:71:9E:4E:97:C3:92:54:AD:0B
            X509v3 Authority Key Identifier: 
                keyid:F4:A7:C0:CC:91:46:AF:64:F3:91:F2:27:F8:C8:B2:6F:8A:87:32:73
                DirName:/C=DE/ST=Hessen/O=privacyidea/CN=CA001
                serial:FB:C8:EB:AC:83:CD:12:07

            X509v3 Extended Key Usage: 
                TLS Web Server Authentication
    Signature Algorithm: sha256WithRSAEncryption
         88:5e:1e:38:d8:24:26:ea:21:6e:3c:15:31:5a:c7:d7:26:ad:
         e6:f4:fc:4e:9e:23:07:79:12:55:65:b6:f1:72:48:d3:b4:c5:
         ec:f0:bc:6f:14:6e:8a:18:f8:2d:a0:08:a0:c6:60:ac:ad:91:
         b4:40:1e:87:a7:30:9b:fb:ab:60:37:ce:d2:d3:7e:12:9e:b1:
         ed:f7:b8:43:62:46:b8:86:a2:23:e4:16:15:ae:51:53:f0:e3:
         59:6c:1a:0e:86:08:05:50:8e:6a:cb:1b:28:4c:b5:4d:7a:bc:
         8f:5a:9d:b2:58:01:a1:22:17:47:0c:1a:98:4c:f8:cd:b0:2b:
         5c:6a:9f:14:6e:d0:54:50:7c:59:16:c9:06:33:a6:49:5f:38:
         6d:32:85:e0:9b:c7:bd:a5:02:c3:14:38:54:86:0e:96:67:e9:
         6c:6e:96:e9:1c:c2:ad:36:5a:f0:f6:e3:87:cd:df:b1:55:eb:
         09:35:48:81:5c:a7:dd:26:05:be:cf:77:2f:e0:ac:15:cc:fb:
         32:86:75:15:99:35:c3:f3:da:cf:62:44:f9:28:fe:6d:e9:0d:
         2c:2c:02:a0:c5:d1:97:16:0b:6e:98:5c:ce:6b:95:37:f3:51:
         49:06:c5:aa:81:53:a9:4f:47:7f:85:2a:dc:4d:6e:d4:3d:82:
         ac:62:37:89
-----BEGIN CERTIFICATE-----
MIIEGTCCAwGgAwIBAgIEEAAA2jANBgkqhkiG9w0BAQsFADBEMQswCQYDVQQGEwJE
RTEPMA0GA1UECAwGSGVzc2VuMRQwEgYDVQQKDAtwcml2YWN5aWRlYTEOMAwGA1UE
AwwFQ0EwMDEwHhcNMTkwNTIzMTQyMTU5WhcNMjAwNTIyMTQyMTU5WjBHMQswCQYD
VQQGEwJERTEPMA0GA1UECAwGSGVzc2VuMRQwEgYDVQQKDAtwcml2YWN5aWRlYTER
MA8GA1UEAwwIdXNlcmNlcnQwggEiMA0GCSqGSIb3DQEBAQUAA4IBDwAwggEKAoIB
AQDcL9FfKZfUfMNTyDC9S2dwLCRruF7rIXpIElZ8gVxIdbZo6/bymE5QUdF/bHPz
Cqeuvkhe5dbh2Sp8Mm5O/Qj2WlRJI3PDuQcY0e+zrPiK3JSWpJA6jnTf5g03G71b
tyUaVjnab5GqXhx08/l8FAGDEmV2x7v+NluV6XJlg+0+mDBx+ofdozZaMAMuJuBh
0b8CP7YGH0qJKBxcov9OvpTmjODagvGdKTJIMHO0BPZCHr734jIyJzydiS9wPoWa
b1zFCcCMMi9yIsnSlR+2rHJgcreCTWvOW+MA0NIvWMbgEOVRyk07LuZ+q4TWVvGT
NaCTZCaBdS+RtRYGOAvbzC0HAgMBAAGjggEOMIIBCjALBgNVHQ8EBAMCBaAwCQYD
VR0TBAIwADARBglghkgBhvhCAQEEBAMCBkAwMwYJYIZIAYb4QgENBCYWJE9wZW5T
U0wgR2VuZXJhdGVkIFNlcnZlciBDZXJ0aWZpY2F0ZTAdBgNVHQ4EFgQU/BTR8EuN
AJDy9bhxnk6Xw5JUrQswdAYDVR0jBG0wa4AU9KfAzJFGr2TzkfIn+Miyb4qHMnOh
SKRGMEQxCzAJBgNVBAYTAkRFMQ8wDQYDVQQIDAZIZXNzZW4xFDASBgNVBAoMC3By
aXZhY3lpZGVhMQ4wDAYDVQQDDAVDQTAwMYIJAPvI66yDzRIHMBMGA1UdJQQMMAoG
CCsGAQUFBwMBMA0GCSqGSIb3DQEBCwUAA4IBAQCIXh442CQm6iFuPBUxWsfXJq3m
9PxOniMHeRJVZbbxckjTtMXs8LxvFG6KGPgtoAigxmCsrZG0QB6HpzCb+6tgN87S
034SnrHt97hDYka4hqIj5BYVrlFT8ONZbBoOhggFUI5qyxsoTLVNeryPWp2yWAGh
IhdHDBqYTPjNsCtcap8UbtBUUHxZFskGM6ZJXzhtMoXgm8e9pQLDFDhUhg6WZ+ls
bpbpHMKtNlrw9uOHzd+xVesJNUiBXKfdJgW+z3cv4KwVzPsyhnUVmTXD89rPYkT5
KP5t6Q0sLAKgxdGXFgtumFzOa5U381FJBsWqgVOpT0d/hSrcTW7UPYKsYjeJ
-----END CERTIFICATE-----
