Certificate:
    Data:
        Version: 3 (0x2)
        Serial Number: 268435683 (0x100000e3)
    Signature Algorithm: sha256WithRSAEncryption
        Issuer: C=DE, ST=Hessen, O=privacyidea, CN=CA001
        Validity
            Not Before: Apr 16 08:32:27 2019 GMT
            Not After : May  5 08:32:27 2021 GMT
        Subject: CN=Steve Test/emailAddress=steve@openssl.org
        Subject Public Key Info:
            Public Key Algorithm: rsaEncryption
                Public-Key: (2048 bit)
                Modulus:
                    00:d2:81:89:20:51:48:0f:73:f4:11:32:24:d5:1f:
                    1c:fd:5c:f5:b6:e6:c5:f0:52:81:dc:d2:af:66:4a:
                    7c:93:31:61:5c:af:d1:6d:06:70:03:60:7c:72:0c:
                    88:dd:49:cd:9e:02:6c:d2:5a:d7:53:0f:f3:da:be:
                    69:64:b5:0f:0c:00:e3:b3:50:47:a3:b3:9b:ba:13:
                    50:d6:58:5a:4b:ab:39:e0:11:ca:0a:27:67:03:78:
                    22:66:6d:92:1e:1b:5c:49:ae:e6:6b:d1:8e:3b:9d:
                    06:d3:c6:ac:4d:53:43:10:ab:e8:96:c1:87:82:97:
                    99:8f:20:d3:99:12:37:31:84:e1:8a:ff:29:03:5f:
                    22:90:3e:7f:9b:e0:20:c1:ad:dc:ae:4c:39:1a:31:
                    96:17:02:8c:b2:d9:b4:0d:20:12:9b:7d:86:54:fd:
                    33:fd:c1:2a:62:46:f8:60:96:cf:6e:01:6f:22:df:
                    13:47:e7:97:ec:05:72:23:a3:62:f8:fa:ef:ac:9c:
                    72:f0:37:cb:2f:37:cf:90:a8:27:51:86:c6:d7:78:
                    08:8f:7e:25:a2:15:70:a2:fb:1c:b6:15:5e:a0:97:
                    8b:81:4c:09:28:8a:27:3b:94:bc:71:db:5b:71:37:
                    9a:2b:16:e0:6f:b5:c9:f5:4b:4f:20:ba:65:cf:af:
                    ad:ad
                Exponent: 65537 (0x10001)
        X509v3 extensions:
            X509v3 Key Usage: 
                Digital Signature, Key Encipherment
            X509v3 Basic Constraints: 
                CA:FALSE
            Netscape Cert Type: 
                SSL Server
            Netscape Comment: 
                OpenSSL Generated Server Certificate
            X509v3 Subject Key Identifier: 
                E5:25:6D:3E:AF:0D:DD:3F:4C:F2:45:19:39:D5:14:DB:7E:9C:C0:AD
            X509v3 Authority Key Identifier: 
                keyid:F4:A7:C0:CC:91:46:AF:64:F3:91:F2:27:F8:C8:B2:6F:8A:87:32:73
                DirName:/C=DE/ST=Hessen/O=privacyidea/CN=CA001
                serial:FB:C8:EB:AC:83:CD:12:07

            X509v3 Extended Key Usage: 
                TLS Web Server Authentication
    Signature Algorithm: sha256WithRSAEncryption
         86:16:fd:ff:ee:6c:05:2b:5e:ff:bf:65:9a:b1:23:c8:ae:e0:
         1c:d4:ee:33:30:4c:0e:99:4c:51:fd:15:75:0c:7a:6e:cf:d0:
         6e:80:49:ef:a9:27:ca:01:62:b1:74:63:4b:a7:48:60:95:73:
         bf:a2:f0:26:e3:5b:e1:be:aa:b4:d8:a5:6e:db:df:86:91:0b:
         0d:f7:6d:8b:80:d2:0d:56:4b:d9:9a:e1:a8:f5:7b:ae:5b:70:
         7e:ae:76:93:16:1e:55:36:5c:70:3b:10:39:64:44:4a:60:90:
         32:78:d2:48:0f:d7:d8:e5:1e:21:28:b2:86:bd:90:bb:22:05:
         55:6e:11:aa:bb:e8:56:da:04:2a:02:75:7f:2a:f5:1e:ce:7d:
         36:6c:d0:5a:af:c9:0a:b7:63:24:17:a0:88:87:7b:38:9b:37:
         f1:6e:33:61:5b:b1:9d:04:af:ae:e5:4e:74:cd:97:ef:40:68:
         d9:d2:09:a8:c9:2a:07:7d:0a:ac:4f:9c:d6:31:f6:a9:ab:5e:
         27:83:98:fb:12:77:51:33:42:c6:22:e0:75:19:65:df:c0:fa:
         2f:1f:3e:fb:d2:6a:31:ee:30:3c:b7:8a:e5:c9:24:1e:d6:a6:
         a5:e9:67:15:46:41:ec:5f:18:ae:c8:be:66:2b:57:d0:3a:21:
         86:99:90:81
-----BEGIN CERTIFICATE-----
MIIECTCCAvGgAwIBAgIEEAAA4zANBgkqhkiG9w0BAQsFADBEMQswCQYDVQQGEwJE
RTEPMA0GA1UECAwGSGVzc2VuMRQwEgYDVQQKDAtwcml2YWN5aWRlYTEOMAwGA1UE
AwwFQ0EwMDEwHhcNMTkwNDE2MDgzMjI3WhcNMjEwNTA1MDgzMjI3WjA3MRMwEQYD
VQQDDApTdGV2ZSBUZXN0MSAwHgYJKoZIhvcNAQkBFhFzdGV2ZUBvcGVuc3NsLm9y
ZzCCASIwDQYJKoZIhvcNAQEBBQADggEPADCCAQoCggEBANKBiSBRSA9z9BEyJNUf
HP1c9bbmxfBSgdzSr2ZKfJMxYVyv0W0GcANgfHIMiN1JzZ4CbNJa11MP89q+aWS1
DwwA47NQR6Ozm7oTUNZYWkurOeARygonZwN4ImZtkh4bXEmu5mvRjjudBtPGrE1T
QxCr6JbBh4KXmY8g05kSNzGE4Yr/KQNfIpA+f5vgIMGt3K5MORoxlhcCjLLZtA0g
Ept9hlT9M/3BKmJG+GCWz24BbyLfE0fnl+wFciOjYvj676yccvA3yy83z5CoJ1GG
xtd4CI9+JaIVcKL7HLYVXqCXi4FMCSiKJzuUvHHbW3E3misW4G+1yfVLTyC6Zc+v
ra0CAwEAAaOCAQ4wggEKMAsGA1UdDwQEAwIFoDAJBgNVHRMEAjAAMBEGCWCGSAGG
+EIBAQQEAwIGQDAzBglghkgBhvhCAQ0EJhYkT3BlblNTTCBHZW5lcmF0ZWQgU2Vy
dmVyIENlcnRpZmljYXRlMB0GA1UdDgQWBBTlJW0+rw3dP0zyRRk51RTbfpzArTB0
BgNVHSMEbTBrgBT0p8DMkUavZPOR8if4yLJviocyc6FIpEYwRDELMAkGA1UEBhMC
REUxDzANBgNVBAgMBkhlc3NlbjEUMBIGA1UECgwLcHJpdmFjeWlkZWExDjAMBgNV
BAMMBUNBMDAxggkA+8jrrIPNEgcwEwYDVR0lBAwwCgYIKwYBBQUHAwEwDQYJKoZI
hvcNAQELBQADggEBAIYW/f/ubAUrXv+/ZZqxI8iu4BzU7jMwTA6ZTFH9FXUMem7P
0G6ASe+pJ8oBYrF0Y0unSGCVc7+i8CbjW+G+qrTYpW7b34aRCw33bYuA0g1WS9ma
4aj1e65bcH6udpMWHlU2XHA7EDlkREpgkDJ40kgP19jlHiEosoa9kLsiBVVuEaq7
6FbaBCoCdX8q9R7OfTZs0FqvyQq3YyQXoIiHezibN/FuM2FbsZ0Er67lTnTNl+9A
aNnSCajJKgd9CqxPnNYx9qmrXieDmPsSd1EzQsYi4HUZZd/A+i8fPvvSajHuMDy3
iuXJJB7WpqXpZxVGQexfGK7IvmYrV9A6IYaZkIE=
-----END CERTIFICATE-----
